

Microchip MPLAB XC8 Assembler V2.46 build 20240104201356 
                                                                                               Tue Aug 13 02:59:46 2024

Microchip MPLAB XC8 C Compiler v2.46 (Free license) build 20240104201356 Og1 
     1                           	processor	18F4620
     2                           	fnconf	rparam,??,?,0
     3                           	pagewidth 120
     4                           	opt	flic
     5                           	psect	idataCOMRAM,global,class=CODE,delta=1,noexec
     6                           	psect	smallconst,global,reloc=2,class=SMALLCONST,delta=1,noexec
     7                           	psect	cinit,global,reloc=2,class=CODE,delta=1
     8                           	psect	bssCOMRAM,global,class=COMRAM,space=1,delta=1,lowdata,noexec
     9                           	psect	dataCOMRAM,global,class=COMRAM,space=1,delta=1,lowdata,noexec
    10                           	psect	cstackCOMRAM,global,class=COMRAM,space=1,delta=1,lowdata,noexec
    11                           	psect	text0,global,reloc=2,class=CODE,delta=1
    12                           	psect	text1,global,reloc=2,class=CODE,delta=1
    13                           	psect	text2,global,reloc=2,class=CODE,delta=1
    14                           	psect	intcode,global,reloc=2,class=CODE,delta=1
    15                           	psect	intcode_body,global,reloc=2,class=CODE,delta=1
    16                           	psect	text4,global,reloc=2,class=CODE,delta=1
    17                           	psect	text5,global,reloc=2,class=CODE,delta=1
    18                           	psect	text6,global,reloc=2,class=CODE,delta=1
    19                           	psect	text7,global,reloc=2,class=CODE,delta=1
    20                           	psect	text8,global,reloc=2,class=CODE,delta=1
    21                           	psect	text9,global,reloc=2,class=CODE,delta=1
    22                           	psect	text10,global,reloc=2,class=CODE,delta=1
    23                           	psect	text11,global,reloc=2,class=CODE,delta=1
    24                           	psect	text12,global,reloc=2,class=CODE,delta=1
    25                           	psect	text13,global,reloc=2,class=CODE,delta=1
    26                           	psect	text14,global,reloc=2,class=CODE,delta=1
    27                           	psect	text15,global,reloc=2,class=CODE,delta=1
    28                           	psect	text16,global,reloc=2,class=CODE,delta=1
    29                           	psect	text17,global,reloc=2,class=CODE,delta=1
    30                           	psect	text18,global,reloc=2,class=CODE,delta=1
    31                           	psect	text19,global,reloc=2,class=CODE,delta=1
    32                           	psect	text20,global,reloc=2,class=CODE,delta=1
    33                           	psect	text21,global,reloc=2,class=CODE,delta=1
    34                           	psect	text22,global,reloc=2,class=CODE,delta=1
    35                           	psect	intsave_regs,global,class=BIGRAM,space=1,delta=1,noexec
    36                           	psect	rparam,global,class=COMRAM,space=1,delta=1,noexec
    37                           	psect	temp,global,ovrld,common,class=COMRAM,space=1,delta=1,lowdata
    38                           	psect	idloc,global,abs,ovrld,class=IDLOC,space=5,delta=1,noexec
    39                           	psect	config,global,abs,ovrld,class=CONFIG,space=4,delta=1,noexec
    40   000000                     
    41                           ; Version 2.20
    42                           ; Generated 12/02/2020 GMT
    43                           ; 
    44                           ; Copyright © 2020, Microchip Technology Inc. and its subsidiaries ("Microchip")
    45                           ; All rights reserved.
    46                           ; 
    47                           ; This software is developed by Microchip Technology Inc. and its subsidiaries ("Microch
      +                          ip").
    48                           ; 
    49                           ; Redistribution and use in source and binary forms, with or without modification, are
    50                           ; permitted provided that the following conditions are met:
    51                           ; 
    52                           ;     1. Redistributions of source code must retain the above copyright notice, this lis
      +                          t of
    53                           ;        conditions and the following disclaimer.
    54                           ; 
    55                           ;     2. Redistributions in binary form must reproduce the above copyright notice, this 
      +                          list
    56                           ;        of conditions and the following disclaimer in the documentation and/or other
    57                           ;        materials provided with the distribution.
    58                           ; 
    59                           ;     3. Microchip's name may not be used to endorse or promote products derived from th
      +                          is
    60                           ;        software without specific prior written permission.
    61                           ; 
    62                           ; THIS SOFTWARE IS PROVIDED BY MICROCHIP "AS IS" AND ANY EXPRESS OR IMPLIED WARRANTIES,
    63                           ; INCLUDING, BUT NOT LIMITED TO, THE IMPLIED WARRANTIES OF MERCHANTABILITY AND FITNESS F
      +                          OR
    64                           ; PURPOSE ARE DISCLAIMED.  IN NO EVENT SHALL MICROCHIP BE LIABLE FOR ANY DIRECT, INDIREC
      +                          T,
    65                           ; INCIDENTAL, SPECIAL, EXEMPLARY, OR CONSEQUENTIAL DAMAGES (INCLUDING BUT NOT LIMITED TO
    66                           ; PROCUREMENT OF SUBSTITUTE GOODS OR SERVICES; LOSS OF USE, DATA OR PROFITS; OR BUSINESS
    67                           ; INTERRUPTION) HOWSOEVER CAUSED AND ON ANY THEORY OF LIABILITY, WHETHER IN CONTRACT, ST
      +                          RICT
    68                           ; LIABILITY, OR TORT (INCLUDING NEGLIGENCE OR OTHERWISE) ARISING IN ANY WAY OUT OF THE U
      +                          SE OF
    69                           ; THIS SOFTWARE, EVEN IF ADVISED OF THE POSSIBILITY OF SUCH DAMAGE.
    70                           ; 
    71                           ; 
    72                           ; Code-generator required, PIC18F4620 Definitions
    73                           ; 
    74                           ; SFR Addresses
    75   000000                     
    76                           	psect	idataCOMRAM
    77   001452                     __pidataCOMRAM:
    78                           	callstack 0
    79                           
    80                           ;initializer for _port_registers
    81   001452  80                 	db	128
    82   001453  0F                 	db	15
    83   001454  81                 	db	129
    84   001455  0F                 	db	15
    85   001456  82                 	db	130
    86   001457  0F                 	db	15
    87   001458  83                 	db	131
    88   001459  0F                 	db	15
    89   00145A  84                 	db	132
    90   00145B  0F                 	db	15
    91                           
    92                           ;initializer for _lat_registers
    93   00145C  89                 	db	137
    94   00145D  0F                 	db	15
    95   00145E  8A                 	db	138
    96   00145F  0F                 	db	15
    97   001460  8B                 	db	139
    98   001461  0F                 	db	15
    99   001462  8C                 	db	140
   100   001463  0F                 	db	15
   101   001464  8D                 	db	141
   102   001465  0F                 	db	15
   103                           
   104                           ;initializer for _tris_registers
   105   001466  92                 	db	146
   106   001467  0F                 	db	15
   107   001468  93                 	db	147
   108   001469  0F                 	db	15
   109   00146A  94                 	db	148
   110   00146B  0F                 	db	15
   111   00146C  95                 	db	149
   112   00146D  0F                 	db	15
   113   00146E  96                 	db	150
   114   00146F  0F                 	db	15
   115                           
   116                           ;initializer for MSSP_SPI_Slave_Mode_GPIO_PIN_Configurations@F3083
   117   001470  68                 	db	104
   118                           
   119                           ;initializer for MSSP_SPI_Slave_Mode_GPIO_PIN_Configurations@F3081
   120   001471  5A                 	db	90
   121                           
   122                           ;initializer for MSSP_SPI_Slave_Mode_GPIO_PIN_Configurations@F3079
   123   001472  62                 	db	98
   124                           
   125                           ;initializer for MSSP_SPI_Slave_Mode_GPIO_PIN_Configurations@F3077
   126   001473  2A                 	db	42
   127                           
   128                           ;initializer for MSSP_SPI_Msster_Mode_GPIO_PIN_Configurations@F3072
   129   001474  1A                 	db	26
   130                           
   131                           ;initializer for MSSP_SPI_Msster_Mode_GPIO_PIN_Configurations@F3070
   132   001475  62                 	db	98
   133                           
   134                           ;initializer for MSSP_SPI_Msster_Mode_GPIO_PIN_Configurations@F3068
   135   001476  2A                 	db	42
   136                           
   137                           ;initializer for _RB7_Flag
   138   001477  01                 	db	1
   139                           
   140                           ;initializer for _RB6_Flag
   141   001478  01                 	db	1
   142                           
   143                           ;initializer for _RB5_Flag
   144   001479  01                 	db	1
   145                           
   146                           ;initializer for _RB4_Flag
   147   00147A  01                 	db	1
   148                           
   149                           	psect	smallconst
   150   001000                     __psmallconst:
   151                           	callstack 0
   152   001000  00                 	db	0
   153   001001                     _btn_values:
   154                           	callstack 0
   155   001001  37                 	db	55
   156   001002  38                 	db	56
   157   001003  39                 	db	57
   158   001004  2F                 	db	47
   159   001005  34                 	db	52
   160   001006  35                 	db	53
   161   001007  36                 	db	54
   162   001008  2A                 	db	42
   163   001009  31                 	db	49
   164   00100A  32                 	db	50
   165   00100B  33                 	db	51
   166   00100C  2D                 	db	45
   167   00100D  23                 	db	35
   168   00100E  30                 	db	48
   169   00100F  3D                 	db	61
   170   001010  2B                 	db	43
   171   001011                     __end_of_btn_values:
   172                           	callstack 0
   173   000000                     _SPBRGH	set	4016
   174   000000                     _SPBRG	set	4015
   175   000000                     _TXREG	set	4013
   176   000000                     _TXSTAbits	set	4012
   177   000000                     _RCREG	set	4014
   178   000000                     _RCSTAbits	set	4011
   179   000000                     _TMR3L	set	4018
   180   000000                     _TMR3H	set	4019
   181   000000                     _TMR2	set	4044
   182   000000                     _T2CONbits	set	4042
   183   000000                     _TMR1L	set	4046
   184   000000                     _TMR1H	set	4047
   185   000000                     _T1CONbits	set	4045
   186   000000                     _TMR0L	set	4054
   187   000000                     _TMR0H	set	4055
   188   000000                     _T0CONbits	set	4053
   189   000000                     _INTCON2bits	set	4081
   190   000000                     _INTCON3bits	set	4080
   191   000000                     _SSPBUF	set	4041
   192   000000                     _SSPSTATbits	set	4039
   193   000000                     _SSPADD	set	4040
   194   000000                     _SSPCON2bits	set	4037
   195   000000                     _SSPCON1bits	set	4038
   196   000000                     _EECON2	set	4007
   197   000000                     _ADCON1bits	set	4033
   198   000000                     _ADRESL	set	4035
   199   000000                     _ADRESH	set	4036
   200   000000                     _INTCONbits	set	4082
   201   000000                     _TRISD	set	3989
   202   000000                     _TRISC	set	3988
   203   000000                     _PR2	set	4043
   204   000000                     _TRISB	set	3987
   205   000000                     _TRISE	set	3990
   206   000000                     _PORTBbits	set	3969
   207   000000                     _TRISCbits	set	3988
   208   000000                     _PORTE	set	3972
   209   000000                     _PORTD	set	3971
   210   000000                     _PORTC	set	3970
   211   000000                     _PORTB	set	3969
   212   000000                     _PORTA	set	3968
   213   000000                     _LATA	set	3977
   214   000000                     _TRISA	set	3986
   215   000000                     _PIE2bits	set	4000
   216   000000                     _CCP2CONbits	set	4026
   217   000000                     _CCP1CONbits	set	4029
   218   000000                     _PIR1bits	set	3998
   219   000000                     _PIE1bits	set	3997
   220   000000                     _ADCON2bits	set	4032
   221   000000                     _ADCON0bits	set	4034
   222   000000                     _CCPR1L	set	4030
   223   000000                     _CCPR2L	set	4027
   224   000000                     _EECON1bits	set	4006
   225   000000                     _EEDATA	set	4008
   226   000000                     _EEADR	set	4009
   227   000000                     _EEADRH	set	4010
   228   000000                     _T3CONbits	set	4017
   229   000000                     _PIR2bits	set	4001
   230   000000                     _LATE	set	3981
   231   000000                     _LATD	set	3980
   232   000000                     _LATC	set	3979
   233   000000                     _LATB	set	3978
   234   000000                     _BAUDCONbits	set	4024
   235   001011                     STR_1:
   236   001011  25                 	db	37
   237   001012  69                 	db	105	;'i'
   238   001013  00                 	db	0
   239   001014  00                 	db	0	; dummy byte at the end
   240   000000                     
   241                           ; #config settings
   242                           
   243                           	psect	cinit
   244   00141C                     __pcinit:
   245                           	callstack 0
   246   00141C                     start_initialization:
   247                           	callstack 0
   248   00141C                     __initialization:
   249                           	callstack 0
   250                           
   251                           ; Initialize objects allocated to COMRAM (41 bytes)
   252                           ; load TBLPTR registers with __pidataCOMRAM
   253   00141C  0E52               	movlw	low __pidataCOMRAM
   254   00141E  6EF6               	movwf	tblptrl,c
   255   001420  0E14               	movlw	high __pidataCOMRAM
   256   001422  6EF7               	movwf	tblptrh,c
   257   001424  0E00               	movlw	low (__pidataCOMRAM shr (0+16))
   258   001426  6EF8               	movwf	tblptru,c
   259   001428  EE00  F047         	lfsr	0,__pdataCOMRAM
   260   00142C  EE10 F029          	lfsr	1,41
   261   001430                     copy_data0:
   262   001430  0009               	tblrd		*+
   263   001432  CFF5 FFEE          	movff	tablat,postinc0
   264   001436  50E5               	movf	postdec1,w,c
   265   001438  50E1               	movf	fsr1l,w,c
   266   00143A  E1FA               	bnz	copy_data0
   267                           
   268                           ; Clear objects allocated to COMRAM (70 bytes)
   269   00143C  EE00  F001         	lfsr	0,__pbssCOMRAM
   270   001440  0E46               	movlw	70
   271   001442                     clear_0:
   272   001442  6AEE               	clrf	postinc0,c
   273   001444  06E8               	decf	wreg,f,c
   274   001446  E1FD               	bnz	clear_0
   275   001448                     end_of_initialization:
   276                           	callstack 0
   277   001448                     __end_of__initialization:
   278                           	callstack 0
   279   001448  9071               	bcf	int$flags,0,c	;clear compiler interrupt flag (level 1)
   280   00144A  9271               	bcf	int$flags,1,c	;clear compiler interrupt flag (level 2)
   281   00144C  0100               	movlb	0
   282   00144E  EF72  F00A         	goto	_main	;jump to C main() function
   283                           
   284                           	psect	bssCOMRAM
   285   000001                     __pbssCOMRAM:
   286                           	callstack 0
   287   000001                     	ds	6
   288   000007                     _EUSART_OverrunErrorHandler:
   289                           	callstack 0
   290   000007                     	ds	2
   291   000009                     _EUSART_FramingErrorHandler:
   292                           	callstack 0
   293   000009                     	ds	2
   294   00000B                     _EUSART_RxInterruptHandler:
   295                           	callstack 0
   296   00000B                     	ds	2
   297   00000D                     _EUSART_TxInterruptHandler:
   298                           	callstack 0
   299   00000D                     	ds	2
   300   00000F                     _timer3_preload:
   301                           	callstack 0
   302   00000F                     	ds	2
   303   000011                     _TMR3_InterruptHandler:
   304                           	callstack 0
   305   000011                     	ds	2
   306   000013                     _TMR2_InterruptHandler:
   307                           	callstack 0
   308   000013                     	ds	2
   309   000015                     _timer1_preload:
   310                           	callstack 0
   311   000015                     	ds	2
   312   000017                     _TMR1_InterruptHandler:
   313                           	callstack 0
   314   000017                     	ds	2
   315   000019                     _timer0_preload:
   316                           	callstack 0
   317   000019                     	ds	2
   318   00001B                     _TMR0_InterruptHandler:
   319                           	callstack 0
   320   00001B                     	ds	2
   321   00001D                     _RB7_InterruptHandler_LOW:
   322                           	callstack 0
   323   00001D                     	ds	2
   324   00001F                     _RB7_InterruptHandler_HIGH:
   325                           	callstack 0
   326   00001F                     	ds	2
   327   000021                     _RB6_InterruptHandler_LOW:
   328                           	callstack 0
   329   000021                     	ds	2
   330   000023                     _RB6_InterruptHandler_HIGH:
   331                           	callstack 0
   332   000023                     	ds	2
   333   000025                     _RB5_InterruptHandler_LOW:
   334                           	callstack 0
   335   000025                     	ds	2
   336   000027                     _RB5_InterruptHandler_HIGH:
   337                           	callstack 0
   338   000027                     	ds	2
   339   000029                     _RB4_InterruptHandler_LOW:
   340                           	callstack 0
   341   000029                     	ds	2
   342   00002B                     _RB4_InterruptHandler_HIGH:
   343                           	callstack 0
   344   00002B                     	ds	2
   345   00002D                     _INT2_InterruptHandler:
   346                           	callstack 0
   347   00002D                     	ds	2
   348   00002F                     _INT1_InterruptHandler:
   349                           	callstack 0
   350   00002F                     	ds	2
   351   000031                     _INT0_InterruptHandler:
   352                           	callstack 0
   353   000031                     	ds	2
   354   000033                     _I2C_Report_Receive_Overflow_InterruptHandle:
   355                           	callstack 0
   356   000033                     	ds	2
   357   000035                     _I2C_DefaultInterruptHandle:
   358                           	callstack 0
   359   000035                     	ds	2
   360   000037                     _I2C_Report_Write_Collision_InterruptHandler:
   361                           	callstack 0
   362   000037                     	ds	2
   363   000039                     _CCP2_InterruptHandler:
   364                           	callstack 0
   365   000039                     	ds	2
   366   00003B                     _CCP1_InterruptHandler:
   367                           	callstack 0
   368   00003B                     	ds	2
   369   00003D                     _ADC_InterruptHandler:
   370                           	callstack 0
   371   00003D                     	ds	2
   372   00003F                     _timer2_preload:
   373                           	callstack 0
   374   00003F                     	ds	1
   375   000040                     relay_turn_off@F3030:
   376                           	callstack 0
   377   000040                     	ds	1
   378   000041                     relay_turn_on@F3025:
   379                           	callstack 0
   380   000041                     	ds	1
   381   000042                     relay_initialize@F3020:
   382                           	callstack 0
   383   000042                     	ds	1
   384   000043                     led_turn_toggle@F3041:
   385                           	callstack 0
   386   000043                     	ds	1
   387   000044                     led_turn_off@F3036:
   388                           	callstack 0
   389   000044                     	ds	1
   390   000045                     led_turn_on@F3031:
   391                           	callstack 0
   392   000045                     	ds	1
   393   000046                     led_initialize@F3026:
   394                           	callstack 0
   395   000046                     	ds	1
   396                           
   397                           	psect	dataCOMRAM
   398   000047                     __pdataCOMRAM:
   399                           	callstack 0
   400   000047                     _port_registers:
   401                           	callstack 0
   402   000047                     	ds	10
   403   000051                     _lat_registers:
   404                           	callstack 0
   405   000051                     	ds	10
   406   00005B                     _tris_registers:
   407                           	callstack 0
   408   00005B                     	ds	10
   409   000065                     MSSP_SPI_Slave_Mode_GPIO_PIN_Configurations@F3083:
   410                           	callstack 0
   411   000065                     	ds	1
   412   000066                     MSSP_SPI_Slave_Mode_GPIO_PIN_Configurations@F3081:
   413                           	callstack 0
   414   000066                     	ds	1
   415   000067                     MSSP_SPI_Slave_Mode_GPIO_PIN_Configurations@F3079:
   416                           	callstack 0
   417   000067                     	ds	1
   418   000068                     MSSP_SPI_Slave_Mode_GPIO_PIN_Configurations@F3077:
   419                           	callstack 0
   420   000068                     	ds	1
   421   000069                     MSSP_SPI_Msster_Mode_GPIO_PIN_Configurations@F3072:
   422                           	callstack 0
   423   000069                     	ds	1
   424   00006A                     MSSP_SPI_Msster_Mode_GPIO_PIN_Configurations@F3070:
   425                           	callstack 0
   426   00006A                     	ds	1
   427   00006B                     MSSP_SPI_Msster_Mode_GPIO_PIN_Configurations@F3068:
   428                           	callstack 0
   429   00006B                     	ds	1
   430   00006C                     _RB7_Flag:
   431                           	callstack 0
   432   00006C                     	ds	1
   433   00006D                     _RB6_Flag:
   434                           	callstack 0
   435   00006D                     	ds	1
   436   00006E                     _RB5_Flag:
   437                           	callstack 0
   438   00006E                     	ds	1
   439   00006F                     _RB4_Flag:
   440                           	callstack 0
   441   00006F                     	ds	1
   442                           
   443                           	psect	cstackCOMRAM
   444   000070                     __pcstackCOMRAM:
   445                           	callstack 0
   446   000070                     RB4_ISR@RB4_Source:
   447                           	callstack 0
   448   000070                     RB5_ISR@RB5_Source:
   449                           	callstack 0
   450   000070                     RB6_ISR@RB6_Source:
   451                           	callstack 0
   452   000070                     RB7_ISR@RB7_Source:
   453                           	callstack 0
   454                           
   455                           ; 1 bytes @ 0x0
   456   000070                     	ds	1
   457   000071                     
   458                           ; 1 bytes @ 0x1
   459 ;;
   460 ;;Main: autosize = 0, tempsize = 0, incstack = 0, save=0
   461 ;;
   462 ;; *************** function _main *****************
   463 ;; Defined at:
   464 ;;		line 11 in file "application.c"
   465 ;; Parameters:    Size  Location     Type
   466 ;;		None
   467 ;; Auto vars:     Size  Location     Type
   468 ;;  ret             1    0        unsigned char 
   469 ;; Return value:  Size  Location     Type
   470 ;;                  2  1700[None  ] int 
   471 ;; Registers used:
   472 ;;		wreg, status,2, cstack
   473 ;; Tracked objects:
   474 ;;		On entry : 0/0
   475 ;;		On exit  : 0/0
   476 ;;		Unchanged: 0/0
   477 ;; Data sizes:     COMRAM   BANK0   BANK1   BANK2   BANK3   BANK4   BANK5   BANK6   BANK7   BANK8   BANK9  BANK10  BANK1
      +1  BANK12  BANK13  BANK14  BANK15
   478 ;;      Params:         0       0       0       0       0       0       0       0       0       0       0       0       
      +0       0       0       0       0
   479 ;;      Locals:         0       0       0       0       0       0       0       0       0       0       0       0       
      +0       0       0       0       0
   480 ;;      Temps:          0       0       0       0       0       0       0       0       0       0       0       0       
      +0       0       0       0       0
   481 ;;      Totals:         0       0       0       0       0       0       0       0       0       0       0       0       
      +0       0       0       0       0
   482 ;;Total ram usage:        0 bytes
   483 ;; Hardware stack levels required when called: 4
   484 ;; This function calls:
   485 ;;		_application_intialize
   486 ;; This function is called by:
   487 ;;		Startup code after reset
   488 ;; This function uses a non-reentrant model
   489 ;;
   490                           
   491                           	psect	text0
   492   0014E4                     __ptext0:
   493                           	callstack 0
   494   0014E4                     _main:
   495                           	callstack 27
   496   0014E4                     
   497                           ;application.c: 14:     application_intialize();
   498   0014E4  EC8E  F00A         	call	_application_intialize	;wreg free
   499   0014E8                     l1701:
   500   0014E8  EF74  F00A         	goto	l1701
   501   0014EC  EF07  F000         	goto	start
   502   0014F0                     __end_of_main:
   503                           	callstack 0
   504                           
   505 ;; *************** function _application_intialize *****************
   506 ;; Defined at:
   507 ;;		line 23 in file "application.c"
   508 ;; Parameters:    Size  Location     Type
   509 ;;		None
   510 ;; Auto vars:     Size  Location     Type
   511 ;;  ret             1    0        unsigned char 
   512 ;; Return value:  Size  Location     Type
   513 ;;                  1    wreg      void 
   514 ;; Registers used:
   515 ;;		wreg, status,2, cstack
   516 ;; Tracked objects:
   517 ;;		On entry : 0/0
   518 ;;		On exit  : 0/0
   519 ;;		Unchanged: 0/0
   520 ;; Data sizes:     COMRAM   BANK0   BANK1   BANK2   BANK3   BANK4   BANK5   BANK6   BANK7   BANK8   BANK9  BANK10  BANK1
      +1  BANK12  BANK13  BANK14  BANK15
   521 ;;      Params:         0       0       0       0       0       0       0       0       0       0       0       0       
      +0       0       0       0       0
   522 ;;      Locals:         0       0       0       0       0       0       0       0       0       0       0       0       
      +0       0       0       0       0
   523 ;;      Temps:          0       0       0       0       0       0       0       0       0       0       0       0       
      +0       0       0       0       0
   524 ;;      Totals:         0       0       0       0       0       0       0       0       0       0       0       0       
      +0       0       0       0       0
   525 ;;Total ram usage:        0 bytes
   526 ;; Hardware stack levels used: 1
   527 ;; Hardware stack levels required when called: 3
   528 ;; This function calls:
   529 ;;		_ecu_layer_intialize
   530 ;; This function is called by:
   531 ;;		_main
   532 ;; This function uses a non-reentrant model
   533 ;;
   534                           
   535                           	psect	text1
   536   00151C                     __ptext1:
   537                           	callstack 0
   538   00151C                     _application_intialize:
   539                           	callstack 27
   540   00151C                     
   541                           ;application.c: 25:     ecu_layer_intialize();
   542   00151C  ECA3  F00A         	call	_ecu_layer_intialize	;wreg free
   543   001520  0012               	return		;funcret
   544   001522                     __end_of_application_intialize:
   545                           	callstack 0
   546                           
   547 ;; *************** function _ecu_layer_intialize *****************
   548 ;; Defined at:
   549 ;;		line 106 in file "ECU_Layer/ecu_layer_init.c"
   550 ;; Parameters:    Size  Location     Type
   551 ;;		None
   552 ;; Auto vars:     Size  Location     Type
   553 ;;  ret             1    0        unsigned char 
   554 ;; Return value:  Size  Location     Type
   555 ;;                  1    wreg      void 
   556 ;; Registers used:
   557 ;;		wreg, status,2
   558 ;; Tracked objects:
   559 ;;		On entry : 0/0
   560 ;;		On exit  : 0/0
   561 ;;		Unchanged: 0/0
   562 ;; Data sizes:     COMRAM   BANK0   BANK1   BANK2   BANK3   BANK4   BANK5   BANK6   BANK7   BANK8   BANK9  BANK10  BANK1
      +1  BANK12  BANK13  BANK14  BANK15
   563 ;;      Params:         0       0       0       0       0       0       0       0       0       0       0       0       
      +0       0       0       0       0
   564 ;;      Locals:         0       0       0       0       0       0       0       0       0       0       0       0       
      +0       0       0       0       0
   565 ;;      Temps:          0       0       0       0       0       0       0       0       0       0       0       0       
      +0       0       0       0       0
   566 ;;      Totals:         0       0       0       0       0       0       0       0       0       0       0       0       
      +0       0       0       0       0
   567 ;;Total ram usage:        0 bytes
   568 ;; Hardware stack levels used: 1
   569 ;; Hardware stack levels required when called: 2
   570 ;; This function calls:
   571 ;;		Nothing
   572 ;; This function is called by:
   573 ;;		_application_intialize
   574 ;; This function uses a non-reentrant model
   575 ;;
   576                           
   577                           	psect	text2
   578   001546                     __ptext2:
   579                           	callstack 0
   580   001546                     _ecu_layer_intialize:
   581                           	callstack 27
   582   001546  0012               	return		;funcret
   583   001548                     __end_of_ecu_layer_intialize:
   584                           	callstack 0
   585                           
   586 ;; *************** function _InterruptManager *****************
   587 ;; Defined at:
   588 ;;		line 32 in file "MCAL_Layer/Interrupt/mcal_interrupt_manager.c"
   589 ;; Parameters:    Size  Location     Type
   590 ;;		None
   591 ;; Auto vars:     Size  Location     Type
   592 ;;		None
   593 ;; Return value:  Size  Location     Type
   594 ;;                  1    wreg      void 
   595 ;; Registers used:
   596 ;;		wreg, status,2, status,0, cstack
   597 ;; Tracked objects:
   598 ;;		On entry : 0/0
   599 ;;		On exit  : 0/0
   600 ;;		Unchanged: 0/0
   601 ;; Data sizes:     COMRAM   BANK0   BANK1   BANK2   BANK3   BANK4   BANK5   BANK6   BANK7   BANK8   BANK9  BANK10  BANK1
      +1  BANK12  BANK13  BANK14  BANK15
   602 ;;      Params:         0       0       0       0       0       0       0       0       0       0       0       0       
      +0       0       0       0       0
   603 ;;      Locals:         0       0       0       0       0       0       0       0       0       0       0       0       
      +0       0       0       0       0
   604 ;;      Temps:          0       0       0       0       0       0       0       0       0       0       0       0       
      +0       0       0       0       0
   605 ;;      Totals:         0       0       0       0       0       0       0       0       0       0       0       0       
      +0       0       0       0       0
   606 ;;Total ram usage:        0 bytes
   607 ;; Hardware stack levels used: 1
   608 ;; Hardware stack levels required when called: 1
   609 ;; This function calls:
   610 ;;		_ADC_ISR
   611 ;;		_CCP1_ISR
   612 ;;		_CCP2_ISR
   613 ;;		_EUSART_RX_ISR
   614 ;;		_EUSART_TX_ISR
   615 ;;		_INT0_ISR
   616 ;;		_INT1_ISR
   617 ;;		_INT2_ISR
   618 ;;		_MSSP_I2C_BC_ISR
   619 ;;		_MSSP_I2C_ISR
   620 ;;		_MSSP_SPI_ISR
   621 ;;		_RB4_ISR
   622 ;;		_RB5_ISR
   623 ;;		_RB6_ISR
   624 ;;		_RB7_ISR
   625 ;;		_TMR0_ISR
   626 ;;		_TMR1_ISR
   627 ;;		_TMR2_ISR
   628 ;;		_TMR3_ISR
   629 ;; This function is called by:
   630 ;;		Interrupt level 2
   631 ;; This function uses a non-reentrant model
   632 ;;
   633                           
   634                           	psect	intcode
   635   000008                     __pintcode:
   636                           	callstack 0
   637   000008                     _InterruptManager:
   638                           	callstack 27
   639                           
   640                           ;incstack = 0
   641   000008  8271               	bsf	int$flags,1,c	;set compiler interrupt flag (level 2)
   642   00000A  ED0B  F008         	call	int_func,f	;refresh shadow registers
   643                           
   644                           	psect	intcode_body
   645   001016                     __pintcode_body:
   646                           	callstack 27
   647   001016                     int_func:
   648                           	callstack 27
   649   001016  0006               	pop		; remove dummy address from shadow register refresh
   650   001018                     
   651                           ;MCAL_Layer/Interrupt/mcal_interrupt_manager.c: 34:     if((1 == INTCONbits.INT0IE) && (
      +                          1 == INTCONbits.INT0IF)){
   652   001018  A8F2               	btfss	242,4,c	;volatile
   653   00101A  EF11  F008         	goto	i2u213_41
   654   00101E  EF13  F008         	goto	i2u213_40
   655   001022                     i2u213_41:
   656   001022  EF1C  F008         	goto	i2l1216
   657   001026                     i2u213_40:
   658   001026  A2F2               	btfss	242,1,c	;volatile
   659   001028  EF18  F008         	goto	i2u214_41
   660   00102C  EF1A  F008         	goto	i2u214_40
   661   001030                     i2u214_41:
   662   001030  EF1C  F008         	goto	i2l1216
   663   001034                     i2u214_40:
   664   001034                     
   665                           ;MCAL_Layer/Interrupt/mcal_interrupt_manager.c: 35:         INT0_ISR();
   666   001034  EC99  F00A         	call	_INT0_ISR	;wreg free
   667   001038                     i2l1216:
   668                           
   669                           ;MCAL_Layer/Interrupt/mcal_interrupt_manager.c: 38:     if((1 == INTCON3bits.INT1E) && (
      +                          1 == INTCON3bits.INT1F)){
   670   001038  A6F0               	btfss	240,3,c	;volatile
   671   00103A  EF21  F008         	goto	i2u215_41
   672   00103E  EF23  F008         	goto	i2u215_40
   673   001042                     i2u215_41:
   674   001042  EF2C  F008         	goto	i2l1218
   675   001046                     i2u215_40:
   676   001046  A0F0               	btfss	240,0,c	;volatile
   677   001048  EF28  F008         	goto	i2u216_41
   678   00104C  EF2A  F008         	goto	i2u216_40
   679   001050                     i2u216_41:
   680   001050  EF2C  F008         	goto	i2l1218
   681   001054                     i2u216_40:
   682   001054                     
   683                           ;MCAL_Layer/Interrupt/mcal_interrupt_manager.c: 39:         INT1_ISR();
   684   001054  EC97  F00A         	call	_INT1_ISR	;wreg free
   685   001058                     i2l1218:
   686                           
   687                           ;MCAL_Layer/Interrupt/mcal_interrupt_manager.c: 42:     if((1 == INTCON3bits.INT2IE) && 
      +                          (1 == INTCON3bits.INT2IF)){
   688   001058  A8F0               	btfss	240,4,c	;volatile
   689   00105A  EF31  F008         	goto	i2u217_41
   690   00105E  EF33  F008         	goto	i2u217_40
   691   001062                     i2u217_41:
   692   001062  EF3C  F008         	goto	i2l1220
   693   001066                     i2u217_40:
   694   001066  A2F0               	btfss	240,1,c	;volatile
   695   001068  EF38  F008         	goto	i2u218_41
   696   00106C  EF3A  F008         	goto	i2u218_40
   697   001070                     i2u218_41:
   698   001070  EF3C  F008         	goto	i2l1220
   699   001074                     i2u218_40:
   700   001074                     
   701                           ;MCAL_Layer/Interrupt/mcal_interrupt_manager.c: 43:         INT2_ISR();
   702   001074  EC95  F00A         	call	_INT2_ISR	;wreg free
   703   001078                     i2l1220:
   704                           
   705                           ;MCAL_Layer/Interrupt/mcal_interrupt_manager.c: 49:     if((1 == INTCONbits.RBIE) && (1 
      +                          == INTCONbits.RBIF) &&
   706   001078  A6F2               	btfss	242,3,c	;volatile
   707   00107A  EF41  F008         	goto	i2u219_41
   708   00107E  EF43  F008         	goto	i2u219_40
   709   001082                     i2u219_41:
   710   001082  EF5E  F008         	goto	i2l1222
   711   001086                     i2u219_40:
   712   001086  A0F2               	btfss	242,0,c	;volatile
   713   001088  EF48  F008         	goto	i2u220_41
   714   00108C  EF4A  F008         	goto	i2u220_40
   715   001090                     i2u220_41:
   716   001090  EF5E  F008         	goto	i2l1222
   717   001094                     i2u220_40:
   718   001094  A881               	btfss	129,4,c	;volatile
   719   001096  EF4F  F008         	goto	i2u221_41
   720   00109A  EF51  F008         	goto	i2u221_40
   721   00109E                     i2u221_41:
   722   00109E  EF5E  F008         	goto	i2l1222
   723   0010A2                     i2u221_40:
   724   0010A2  046F               	decf	_RB4_Flag^0,w,c	;volatile
   725   0010A4  A4D8               	btfss	status,2,c
   726   0010A6  EF57  F008         	goto	i2u222_41
   727   0010AA  EF59  F008         	goto	i2u222_40
   728   0010AE                     i2u222_41:
   729   0010AE  EF5E  F008         	goto	i2l1222
   730   0010B2                     i2u222_40:
   731   0010B2                     
   732                           ;MCAL_Layer/Interrupt/mcal_interrupt_manager.c: 50:        (PORTBbits.RB4 == GPIO_HIGH) 
      +                          && (RB4_Flag == 1)){;MCAL_Layer/Interrupt/mcal_interrupt_manager.c: 51:         RB4_Flag
      +                           = 0;
   733   0010B2  0E00               	movlw	0
   734   0010B4  6E6F               	movwf	_RB4_Flag^0,c	;volatile
   735   0010B6                     
   736                           ;MCAL_Layer/Interrupt/mcal_interrupt_manager.c: 52:         RB4_ISR(0);
   737   0010B6  0E00               	movlw	0
   738   0010B8  EC65  F00A         	call	_RB4_ISR
   739   0010BC                     i2l1222:
   740                           
   741                           ;MCAL_Layer/Interrupt/mcal_interrupt_manager.c: 55:     if((1 == INTCONbits.RBIE) && (1 
      +                          == INTCONbits.RBIF) &&
   742   0010BC  A6F2               	btfss	242,3,c	;volatile
   743   0010BE  EF63  F008         	goto	i2u223_41
   744   0010C2  EF65  F008         	goto	i2u223_40
   745   0010C6                     i2u223_41:
   746   0010C6  EF80  F008         	goto	i2l1224
   747   0010CA                     i2u223_40:
   748   0010CA  A0F2               	btfss	242,0,c	;volatile
   749   0010CC  EF6A  F008         	goto	i2u224_41
   750   0010D0  EF6C  F008         	goto	i2u224_40
   751   0010D4                     i2u224_41:
   752   0010D4  EF80  F008         	goto	i2l1224
   753   0010D8                     i2u224_40:
   754   0010D8  B881               	btfsc	129,4,c	;volatile
   755   0010DA  EF71  F008         	goto	i2u225_41
   756   0010DE  EF73  F008         	goto	i2u225_40
   757   0010E2                     i2u225_41:
   758   0010E2  EF80  F008         	goto	i2l1224
   759   0010E6                     i2u225_40:
   760   0010E6  506F               	movf	_RB4_Flag^0,w,c	;volatile
   761   0010E8  A4D8               	btfss	status,2,c
   762   0010EA  EF79  F008         	goto	i2u226_41
   763   0010EE  EF7B  F008         	goto	i2u226_40
   764   0010F2                     i2u226_41:
   765   0010F2  EF80  F008         	goto	i2l1224
   766   0010F6                     i2u226_40:
   767   0010F6                     
   768                           ;MCAL_Layer/Interrupt/mcal_interrupt_manager.c: 56:        (PORTBbits.RB4 == GPIO_LOW) &
      +                          & (RB4_Flag == 0)){;MCAL_Layer/Interrupt/mcal_interrupt_manager.c: 57:         RB4_Flag 
      +                          = 1;
   769   0010F6  0E01               	movlw	1
   770   0010F8  6E6F               	movwf	_RB4_Flag^0,c	;volatile
   771   0010FA                     
   772                           ;MCAL_Layer/Interrupt/mcal_interrupt_manager.c: 58:         RB4_ISR(1);
   773   0010FA  0E01               	movlw	1
   774   0010FC  EC65  F00A         	call	_RB4_ISR
   775   001100                     i2l1224:
   776                           
   777                           ;MCAL_Layer/Interrupt/mcal_interrupt_manager.c: 61:     if((1 == INTCONbits.RBIE) && (1 
      +                          == INTCONbits.RBIF) &&
   778   001100  A6F2               	btfss	242,3,c	;volatile
   779   001102  EF85  F008         	goto	i2u227_41
   780   001106  EF87  F008         	goto	i2u227_40
   781   00110A                     i2u227_41:
   782   00110A  EFA2  F008         	goto	i2l1226
   783   00110E                     i2u227_40:
   784   00110E  A0F2               	btfss	242,0,c	;volatile
   785   001110  EF8C  F008         	goto	i2u228_41
   786   001114  EF8E  F008         	goto	i2u228_40
   787   001118                     i2u228_41:
   788   001118  EFA2  F008         	goto	i2l1226
   789   00111C                     i2u228_40:
   790   00111C  AA81               	btfss	129,5,c	;volatile
   791   00111E  EF93  F008         	goto	i2u229_41
   792   001122  EF95  F008         	goto	i2u229_40
   793   001126                     i2u229_41:
   794   001126  EFA2  F008         	goto	i2l1226
   795   00112A                     i2u229_40:
   796   00112A  046E               	decf	_RB5_Flag^0,w,c	;volatile
   797   00112C  A4D8               	btfss	status,2,c
   798   00112E  EF9B  F008         	goto	i2u230_41
   799   001132  EF9D  F008         	goto	i2u230_40
   800   001136                     i2u230_41:
   801   001136  EFA2  F008         	goto	i2l1226
   802   00113A                     i2u230_40:
   803   00113A                     
   804                           ;MCAL_Layer/Interrupt/mcal_interrupt_manager.c: 62:        (PORTBbits.RB5 == GPIO_HIGH) 
      +                          && (RB5_Flag == 1)){;MCAL_Layer/Interrupt/mcal_interrupt_manager.c: 63:         RB5_Flag
      +                           = 0;
   805   00113A  0E00               	movlw	0
   806   00113C  6E6E               	movwf	_RB5_Flag^0,c	;volatile
   807   00113E                     
   808                           ;MCAL_Layer/Interrupt/mcal_interrupt_manager.c: 64:         RB5_ISR(0);
   809   00113E  0E00               	movlw	0
   810   001140  EC58  F00A         	call	_RB5_ISR
   811   001144                     i2l1226:
   812                           
   813                           ;MCAL_Layer/Interrupt/mcal_interrupt_manager.c: 67:     if((1 == INTCONbits.RBIE) && (1 
      +                          == INTCONbits.RBIF) &&
   814   001144  A6F2               	btfss	242,3,c	;volatile
   815   001146  EFA7  F008         	goto	i2u231_41
   816   00114A  EFA9  F008         	goto	i2u231_40
   817   00114E                     i2u231_41:
   818   00114E  EFC4  F008         	goto	i2l1228
   819   001152                     i2u231_40:
   820   001152  A0F2               	btfss	242,0,c	;volatile
   821   001154  EFAE  F008         	goto	i2u232_41
   822   001158  EFB0  F008         	goto	i2u232_40
   823   00115C                     i2u232_41:
   824   00115C  EFC4  F008         	goto	i2l1228
   825   001160                     i2u232_40:
   826   001160  BA81               	btfsc	129,5,c	;volatile
   827   001162  EFB5  F008         	goto	i2u233_41
   828   001166  EFB7  F008         	goto	i2u233_40
   829   00116A                     i2u233_41:
   830   00116A  EFC4  F008         	goto	i2l1228
   831   00116E                     i2u233_40:
   832   00116E  506E               	movf	_RB5_Flag^0,w,c	;volatile
   833   001170  A4D8               	btfss	status,2,c
   834   001172  EFBD  F008         	goto	i2u234_41
   835   001176  EFBF  F008         	goto	i2u234_40
   836   00117A                     i2u234_41:
   837   00117A  EFC4  F008         	goto	i2l1228
   838   00117E                     i2u234_40:
   839   00117E                     
   840                           ;MCAL_Layer/Interrupt/mcal_interrupt_manager.c: 68:        (PORTBbits.RB5 == GPIO_LOW) &
      +                          & (RB5_Flag == 0)){;MCAL_Layer/Interrupt/mcal_interrupt_manager.c: 69:         RB5_Flag 
      +                          = 1;
   841   00117E  0E01               	movlw	1
   842   001180  6E6E               	movwf	_RB5_Flag^0,c	;volatile
   843   001182                     
   844                           ;MCAL_Layer/Interrupt/mcal_interrupt_manager.c: 70:         RB5_ISR(1);
   845   001182  0E01               	movlw	1
   846   001184  EC58  F00A         	call	_RB5_ISR
   847   001188                     i2l1228:
   848                           
   849                           ;MCAL_Layer/Interrupt/mcal_interrupt_manager.c: 73:     if((1 == INTCONbits.RBIE) && (1 
      +                          == INTCONbits.RBIF) &&
   850   001188  A6F2               	btfss	242,3,c	;volatile
   851   00118A  EFC9  F008         	goto	i2u235_41
   852   00118E  EFCB  F008         	goto	i2u235_40
   853   001192                     i2u235_41:
   854   001192  EFE6  F008         	goto	i2l1230
   855   001196                     i2u235_40:
   856   001196  A0F2               	btfss	242,0,c	;volatile
   857   001198  EFD0  F008         	goto	i2u236_41
   858   00119C  EFD2  F008         	goto	i2u236_40
   859   0011A0                     i2u236_41:
   860   0011A0  EFE6  F008         	goto	i2l1230
   861   0011A4                     i2u236_40:
   862   0011A4  AC81               	btfss	129,6,c	;volatile
   863   0011A6  EFD7  F008         	goto	i2u237_41
   864   0011AA  EFD9  F008         	goto	i2u237_40
   865   0011AE                     i2u237_41:
   866   0011AE  EFE6  F008         	goto	i2l1230
   867   0011B2                     i2u237_40:
   868   0011B2  046D               	decf	_RB6_Flag^0,w,c	;volatile
   869   0011B4  A4D8               	btfss	status,2,c
   870   0011B6  EFDF  F008         	goto	i2u238_41
   871   0011BA  EFE1  F008         	goto	i2u238_40
   872   0011BE                     i2u238_41:
   873   0011BE  EFE6  F008         	goto	i2l1230
   874   0011C2                     i2u238_40:
   875   0011C2                     
   876                           ;MCAL_Layer/Interrupt/mcal_interrupt_manager.c: 74:        (PORTBbits.RB6 == GPIO_HIGH) 
      +                          && (RB6_Flag == 1)){;MCAL_Layer/Interrupt/mcal_interrupt_manager.c: 75:         RB6_Flag
      +                           = 0;
   877   0011C2  0E00               	movlw	0
   878   0011C4  6E6D               	movwf	_RB6_Flag^0,c	;volatile
   879   0011C6                     
   880                           ;MCAL_Layer/Interrupt/mcal_interrupt_manager.c: 76:         RB6_ISR(0);
   881   0011C6  0E00               	movlw	0
   882   0011C8  EC4B  F00A         	call	_RB6_ISR
   883   0011CC                     i2l1230:
   884                           
   885                           ;MCAL_Layer/Interrupt/mcal_interrupt_manager.c: 79:     if((1 == INTCONbits.RBIE) && (1 
      +                          == INTCONbits.RBIF) &&
   886   0011CC  A6F2               	btfss	242,3,c	;volatile
   887   0011CE  EFEB  F008         	goto	i2u239_41
   888   0011D2  EFED  F008         	goto	i2u239_40
   889   0011D6                     i2u239_41:
   890   0011D6  EF08  F009         	goto	i2l1232
   891   0011DA                     i2u239_40:
   892   0011DA  A0F2               	btfss	242,0,c	;volatile
   893   0011DC  EFF2  F008         	goto	i2u240_41
   894   0011E0  EFF4  F008         	goto	i2u240_40
   895   0011E4                     i2u240_41:
   896   0011E4  EF08  F009         	goto	i2l1232
   897   0011E8                     i2u240_40:
   898   0011E8  BC81               	btfsc	129,6,c	;volatile
   899   0011EA  EFF9  F008         	goto	i2u241_41
   900   0011EE  EFFB  F008         	goto	i2u241_40
   901   0011F2                     i2u241_41:
   902   0011F2  EF08  F009         	goto	i2l1232
   903   0011F6                     i2u241_40:
   904   0011F6  506D               	movf	_RB6_Flag^0,w,c	;volatile
   905   0011F8  A4D8               	btfss	status,2,c
   906   0011FA  EF01  F009         	goto	i2u242_41
   907   0011FE  EF03  F009         	goto	i2u242_40
   908   001202                     i2u242_41:
   909   001202  EF08  F009         	goto	i2l1232
   910   001206                     i2u242_40:
   911   001206                     
   912                           ;MCAL_Layer/Interrupt/mcal_interrupt_manager.c: 80:        (PORTBbits.RB6 == GPIO_LOW) &
      +                          & (RB6_Flag == 0)){;MCAL_Layer/Interrupt/mcal_interrupt_manager.c: 81:         RB6_Flag 
      +                          = 1;
   913   001206  0E01               	movlw	1
   914   001208  6E6D               	movwf	_RB6_Flag^0,c	;volatile
   915   00120A                     
   916                           ;MCAL_Layer/Interrupt/mcal_interrupt_manager.c: 82:         RB6_ISR(1);
   917   00120A  0E01               	movlw	1
   918   00120C  EC4B  F00A         	call	_RB6_ISR
   919   001210                     i2l1232:
   920                           
   921                           ;MCAL_Layer/Interrupt/mcal_interrupt_manager.c: 85:     if((1 == INTCONbits.RBIE) && (1 
      +                          == INTCONbits.RBIF) &&
   922   001210  A6F2               	btfss	242,3,c	;volatile
   923   001212  EF0D  F009         	goto	i2u243_41
   924   001216  EF0F  F009         	goto	i2u243_40
   925   00121A                     i2u243_41:
   926   00121A  EF2A  F009         	goto	i2l1234
   927   00121E                     i2u243_40:
   928   00121E  A0F2               	btfss	242,0,c	;volatile
   929   001220  EF14  F009         	goto	i2u244_41
   930   001224  EF16  F009         	goto	i2u244_40
   931   001228                     i2u244_41:
   932   001228  EF2A  F009         	goto	i2l1234
   933   00122C                     i2u244_40:
   934   00122C  AE81               	btfss	129,7,c	;volatile
   935   00122E  EF1B  F009         	goto	i2u245_41
   936   001232  EF1D  F009         	goto	i2u245_40
   937   001236                     i2u245_41:
   938   001236  EF2A  F009         	goto	i2l1234
   939   00123A                     i2u245_40:
   940   00123A  046C               	decf	_RB7_Flag^0,w,c	;volatile
   941   00123C  A4D8               	btfss	status,2,c
   942   00123E  EF23  F009         	goto	i2u246_41
   943   001242  EF25  F009         	goto	i2u246_40
   944   001246                     i2u246_41:
   945   001246  EF2A  F009         	goto	i2l1234
   946   00124A                     i2u246_40:
   947   00124A                     
   948                           ;MCAL_Layer/Interrupt/mcal_interrupt_manager.c: 86:        (PORTBbits.RB7 == GPIO_HIGH) 
      +                          && (RB7_Flag == 1)){;MCAL_Layer/Interrupt/mcal_interrupt_manager.c: 87:         RB7_Flag
      +                           = 0;
   949   00124A  0E00               	movlw	0
   950   00124C  6E6C               	movwf	_RB7_Flag^0,c	;volatile
   951   00124E                     
   952                           ;MCAL_Layer/Interrupt/mcal_interrupt_manager.c: 88:         RB7_ISR(0);
   953   00124E  0E00               	movlw	0
   954   001250  EC3E  F00A         	call	_RB7_ISR
   955   001254                     i2l1234:
   956                           
   957                           ;MCAL_Layer/Interrupt/mcal_interrupt_manager.c: 91:     if((1 == INTCONbits.RBIE) && (1 
      +                          == INTCONbits.RBIF) &&
   958   001254  A6F2               	btfss	242,3,c	;volatile
   959   001256  EF2F  F009         	goto	i2u247_41
   960   00125A  EF31  F009         	goto	i2u247_40
   961   00125E                     i2u247_41:
   962   00125E  EF4C  F009         	goto	i2l1236
   963   001262                     i2u247_40:
   964   001262  A0F2               	btfss	242,0,c	;volatile
   965   001264  EF36  F009         	goto	i2u248_41
   966   001268  EF38  F009         	goto	i2u248_40
   967   00126C                     i2u248_41:
   968   00126C  EF4C  F009         	goto	i2l1236
   969   001270                     i2u248_40:
   970   001270  BE81               	btfsc	129,7,c	;volatile
   971   001272  EF3D  F009         	goto	i2u249_41
   972   001276  EF3F  F009         	goto	i2u249_40
   973   00127A                     i2u249_41:
   974   00127A  EF4C  F009         	goto	i2l1236
   975   00127E                     i2u249_40:
   976   00127E  506C               	movf	_RB7_Flag^0,w,c	;volatile
   977   001280  A4D8               	btfss	status,2,c
   978   001282  EF45  F009         	goto	i2u250_41
   979   001286  EF47  F009         	goto	i2u250_40
   980   00128A                     i2u250_41:
   981   00128A  EF4C  F009         	goto	i2l1236
   982   00128E                     i2u250_40:
   983   00128E                     
   984                           ;MCAL_Layer/Interrupt/mcal_interrupt_manager.c: 92:        (PORTBbits.RB7 == GPIO_LOW) &
      +                          & (RB7_Flag == 0)){;MCAL_Layer/Interrupt/mcal_interrupt_manager.c: 93:         RB7_Flag 
      +                          = 1;
   985   00128E  0E01               	movlw	1
   986   001290  6E6C               	movwf	_RB7_Flag^0,c	;volatile
   987   001292                     
   988                           ;MCAL_Layer/Interrupt/mcal_interrupt_manager.c: 94:         RB7_ISR(1);
   989   001292  0E01               	movlw	1
   990   001294  EC3E  F00A         	call	_RB7_ISR
   991   001298                     i2l1236:
   992                           
   993                           ;MCAL_Layer/Interrupt/mcal_interrupt_manager.c: 99:     if((1 == PIE1bits.ADIE) && (1 ==
      +                           PIR1bits.ADIF)){
   994   001298  AC9D               	btfss	157,6,c	;volatile
   995   00129A  EF51  F009         	goto	i2u251_41
   996   00129E  EF53  F009         	goto	i2u251_40
   997   0012A2                     i2u251_41:
   998   0012A2  EF5C  F009         	goto	i2l1238
   999   0012A6                     i2u251_40:
  1000   0012A6  AC9E               	btfss	158,6,c	;volatile
  1001   0012A8  EF58  F009         	goto	i2u252_41
  1002   0012AC  EF5A  F009         	goto	i2u252_40
  1003   0012B0                     i2u252_41:
  1004   0012B0  EF5C  F009         	goto	i2l1238
  1005   0012B4                     i2u252_40:
  1006   0012B4                     
  1007                           ;MCAL_Layer/Interrupt/mcal_interrupt_manager.c: 100:         ADC_ISR();
  1008   0012B4  ECA1  F00A         	call	_ADC_ISR	;wreg free
  1009   0012B8                     i2l1238:
  1010                           
  1011                           ;MCAL_Layer/Interrupt/mcal_interrupt_manager.c: 104:     if((1 == INTCONbits.TMR0IE) && 
      +                          (1 == INTCONbits.TMR0IF)){
  1012   0012B8  AAF2               	btfss	242,5,c	;volatile
  1013   0012BA  EF61  F009         	goto	i2u253_41
  1014   0012BE  EF63  F009         	goto	i2u253_40
  1015   0012C2                     i2u253_41:
  1016   0012C2  EF6C  F009         	goto	i2l1240
  1017   0012C6                     i2u253_40:
  1018   0012C6  A4F2               	btfss	242,2,c	;volatile
  1019   0012C8  EF68  F009         	goto	i2u254_41
  1020   0012CC  EF6A  F009         	goto	i2u254_40
  1021   0012D0                     i2u254_41:
  1022   0012D0  EF6C  F009         	goto	i2l1240
  1023   0012D4                     i2u254_40:
  1024   0012D4                     
  1025                           ;MCAL_Layer/Interrupt/mcal_interrupt_manager.c: 105:         TMR0_ISR();
  1026   0012D4  EC84  F00A         	call	_TMR0_ISR	;wreg free
  1027   0012D8                     i2l1240:
  1028                           
  1029                           ;MCAL_Layer/Interrupt/mcal_interrupt_manager.c: 108:     if((1 == PIE1bits.TMR1IE) && (1
      +                           == PIR1bits.TMR1IF)){
  1030   0012D8  A09D               	btfss	157,0,c	;volatile
  1031   0012DA  EF71  F009         	goto	i2u255_41
  1032   0012DE  EF73  F009         	goto	i2u255_40
  1033   0012E2                     i2u255_41:
  1034   0012E2  EF7C  F009         	goto	i2l1242
  1035   0012E6                     i2u255_40:
  1036   0012E6  A09E               	btfss	158,0,c	;volatile
  1037   0012E8  EF78  F009         	goto	i2u256_41
  1038   0012EC  EF7A  F009         	goto	i2u256_40
  1039   0012F0                     i2u256_41:
  1040   0012F0  EF7C  F009         	goto	i2l1242
  1041   0012F4                     i2u256_40:
  1042   0012F4                     
  1043                           ;MCAL_Layer/Interrupt/mcal_interrupt_manager.c: 109:         TMR1_ISR();
  1044   0012F4  EC7E  F00A         	call	_TMR1_ISR	;wreg free
  1045   0012F8                     i2l1242:
  1046                           
  1047                           ;MCAL_Layer/Interrupt/mcal_interrupt_manager.c: 112:     if((1 == PIE1bits.TMR2IE) && (1
      +                           == PIR1bits.TMR2IF)){
  1048   0012F8  A29D               	btfss	157,1,c	;volatile
  1049   0012FA  EF81  F009         	goto	i2u257_41
  1050   0012FE  EF83  F009         	goto	i2u257_40
  1051   001302                     i2u257_41:
  1052   001302  EF8C  F009         	goto	i2l1244
  1053   001306                     i2u257_40:
  1054   001306  A29E               	btfss	158,1,c	;volatile
  1055   001308  EF88  F009         	goto	i2u258_41
  1056   00130C  EF8A  F009         	goto	i2u258_40
  1057   001310                     i2u258_41:
  1058   001310  EF8C  F009         	goto	i2l1244
  1059   001314                     i2u258_40:
  1060   001314                     
  1061                           ;MCAL_Layer/Interrupt/mcal_interrupt_manager.c: 113:         TMR2_ISR();
  1062   001314  EC8A  F00A         	call	_TMR2_ISR	;wreg free
  1063   001318                     i2l1244:
  1064                           
  1065                           ;MCAL_Layer/Interrupt/mcal_interrupt_manager.c: 116:     if((1 == PIE2bits.TMR3IE) && (1
      +                           == PIR2bits.TMR3IF)){
  1066   001318  A2A0               	btfss	160,1,c	;volatile
  1067   00131A  EF91  F009         	goto	i2u259_41
  1068   00131E  EF93  F009         	goto	i2u259_40
  1069   001322                     i2u259_41:
  1070   001322  EF9C  F009         	goto	i2l1246
  1071   001326                     i2u259_40:
  1072   001326  A2A1               	btfss	161,1,c	;volatile
  1073   001328  EF98  F009         	goto	i2u260_41
  1074   00132C  EF9A  F009         	goto	i2u260_40
  1075   001330                     i2u260_41:
  1076   001330  EF9C  F009         	goto	i2l1246
  1077   001334                     i2u260_40:
  1078   001334                     
  1079                           ;MCAL_Layer/Interrupt/mcal_interrupt_manager.c: 117:         TMR3_ISR();
  1080   001334  EC78  F00A         	call	_TMR3_ISR	;wreg free
  1081   001338                     i2l1246:
  1082                           
  1083                           ;MCAL_Layer/Interrupt/mcal_interrupt_manager.c: 121:     if((1 == PIE1bits.TXIE) && (1 =
      +                          = PIR1bits.TXIF)){
  1084   001338  A89D               	btfss	157,4,c	;volatile
  1085   00133A  EFA1  F009         	goto	i2u261_41
  1086   00133E  EFA3  F009         	goto	i2u261_40
  1087   001342                     i2u261_41:
  1088   001342  EFAC  F009         	goto	i2l1248
  1089   001346                     i2u261_40:
  1090   001346  A89E               	btfss	158,4,c	;volatile
  1091   001348  EFA8  F009         	goto	i2u262_41
  1092   00134C  EFAA  F009         	goto	i2u262_40
  1093   001350                     i2u262_41:
  1094   001350  EFAC  F009         	goto	i2l1248
  1095   001354                     i2u262_40:
  1096   001354                     
  1097                           ;MCAL_Layer/Interrupt/mcal_interrupt_manager.c: 122:         EUSART_TX_ISR();
  1098   001354  EC9B  F00A         	call	_EUSART_TX_ISR	;wreg free
  1099   001358                     i2l1248:
  1100                           
  1101                           ;MCAL_Layer/Interrupt/mcal_interrupt_manager.c: 125:     if((1 == PIE1bits.RCIE) && (1 =
      +                          = PIR1bits.RCIF)){
  1102   001358  AA9D               	btfss	157,5,c	;volatile
  1103   00135A  EFB1  F009         	goto	i2u263_41
  1104   00135E  EFB3  F009         	goto	i2u263_40
  1105   001362                     i2u263_41:
  1106   001362  EFBC  F009         	goto	i2l1250
  1107   001366                     i2u263_40:
  1108   001366  AA9E               	btfss	158,5,c	;volatile
  1109   001368  EFB8  F009         	goto	i2u264_41
  1110   00136C  EFBA  F009         	goto	i2u264_40
  1111   001370                     i2u264_41:
  1112   001370  EFBC  F009         	goto	i2l1250
  1113   001374                     i2u264_40:
  1114   001374                     
  1115                           ;MCAL_Layer/Interrupt/mcal_interrupt_manager.c: 126:         EUSART_RX_ISR();
  1116   001374  ECA5  F00A         	call	_EUSART_RX_ISR	;wreg free
  1117   001378                     i2l1250:
  1118                           
  1119                           ;MCAL_Layer/Interrupt/mcal_interrupt_manager.c: 131:     if((1 == PIE1bits.SSPIE) && (1 
      +                          == PIR1bits.SSPIF)){
  1120   001378  A69D               	btfss	157,3,c	;volatile
  1121   00137A  EFC1  F009         	goto	i2u265_41
  1122   00137E  EFC3  F009         	goto	i2u265_40
  1123   001382                     i2u265_41:
  1124   001382  EFCC  F009         	goto	i2l1252
  1125   001386                     i2u265_40:
  1126   001386  A69E               	btfss	158,3,c	;volatile
  1127   001388  EFC8  F009         	goto	i2u266_41
  1128   00138C  EFCA  F009         	goto	i2u266_40
  1129   001390                     i2u266_41:
  1130   001390  EFCC  F009         	goto	i2l1252
  1131   001394                     i2u266_40:
  1132   001394                     
  1133                           ;MCAL_Layer/Interrupt/mcal_interrupt_manager.c: 132:         MSSP_I2C_ISR();
  1134   001394  EC91  F00A         	call	_MSSP_I2C_ISR	;wreg free
  1135   001398                     i2l1252:
  1136                           
  1137                           ;MCAL_Layer/Interrupt/mcal_interrupt_manager.c: 135:     if((1 == PIE2bits.BCLIE) && (1 
      +                          == PIR2bits.BCLIF)){
  1138   001398  A6A0               	btfss	160,3,c	;volatile
  1139   00139A  EFD1  F009         	goto	i2u267_41
  1140   00139E  EFD3  F009         	goto	i2u267_40
  1141   0013A2                     i2u267_41:
  1142   0013A2  EFDC  F009         	goto	i2l1254
  1143   0013A6                     i2u267_40:
  1144   0013A6  A6A1               	btfss	161,3,c	;volatile
  1145   0013A8  EFD8  F009         	goto	i2u268_41
  1146   0013AC  EFDA  F009         	goto	i2u268_40
  1147   0013B0                     i2u268_41:
  1148   0013B0  EFDC  F009         	goto	i2l1254
  1149   0013B4                     i2u268_40:
  1150   0013B4                     
  1151                           ;MCAL_Layer/Interrupt/mcal_interrupt_manager.c: 136:         MSSP_I2C_BC_ISR();
  1152   0013B4  EC93  F00A         	call	_MSSP_I2C_BC_ISR	;wreg free
  1153   0013B8                     i2l1254:
  1154                           
  1155                           ;MCAL_Layer/Interrupt/mcal_interrupt_manager.c: 139:     if((1 == PIE1bits.SSPIE) && (1 
      +                          == PIR1bits.SSPIF)){
  1156   0013B8  A69D               	btfss	157,3,c	;volatile
  1157   0013BA  EFE1  F009         	goto	i2u269_41
  1158   0013BE  EFE3  F009         	goto	i2u269_40
  1159   0013C2                     i2u269_41:
  1160   0013C2  EFEC  F009         	goto	i2l1256
  1161   0013C6                     i2u269_40:
  1162   0013C6  A69E               	btfss	158,3,c	;volatile
  1163   0013C8  EFE8  F009         	goto	i2u270_41
  1164   0013CC  EFEA  F009         	goto	i2u270_40
  1165   0013D0                     i2u270_41:
  1166   0013D0  EFEC  F009         	goto	i2l1256
  1167   0013D4                     i2u270_40:
  1168   0013D4                     
  1169                           ;MCAL_Layer/Interrupt/mcal_interrupt_manager.c: 140:         MSSP_SPI_ISR();
  1170   0013D4  ECA4  F00A         	call	_MSSP_SPI_ISR	;wreg free
  1171   0013D8                     i2l1256:
  1172                           
  1173                           ;MCAL_Layer/Interrupt/mcal_interrupt_manager.c: 145:     if((1 == PIE1bits.CCP1IE) && (1
      +                           == PIR1bits.CCP1IF)){
  1174   0013D8  A49D               	btfss	157,2,c	;volatile
  1175   0013DA  EFF1  F009         	goto	i2u271_41
  1176   0013DE  EFF3  F009         	goto	i2u271_40
  1177   0013E2                     i2u271_41:
  1178   0013E2  EFFC  F009         	goto	i2l1258
  1179   0013E6                     i2u271_40:
  1180   0013E6  A49E               	btfss	158,2,c	;volatile
  1181   0013E8  EFF8  F009         	goto	i2u272_41
  1182   0013EC  EFFA  F009         	goto	i2u272_40
  1183   0013F0                     i2u272_41:
  1184   0013F0  EFFC  F009         	goto	i2l1258
  1185   0013F4                     i2u272_40:
  1186   0013F4                     
  1187                           ;MCAL_Layer/Interrupt/mcal_interrupt_manager.c: 146:         CCP1_ISR();
  1188   0013F4  EC9F  F00A         	call	_CCP1_ISR	;wreg free
  1189   0013F8                     i2l1258:
  1190                           
  1191                           ;MCAL_Layer/Interrupt/mcal_interrupt_manager.c: 149:     if((1 == PIE2bits.CCP2IE) && (1
      +                           == PIR2bits.CCP2IF)){
  1192   0013F8  A0A0               	btfss	160,0,c	;volatile
  1193   0013FA  EF01  F00A         	goto	i2u273_41
  1194   0013FE  EF03  F00A         	goto	i2u273_40
  1195   001402                     i2u273_41:
  1196   001402  EF0C  F00A         	goto	i2l1261
  1197   001406                     i2u273_40:
  1198   001406  A0A1               	btfss	161,0,c	;volatile
  1199   001408  EF08  F00A         	goto	i2u274_41
  1200   00140C  EF0A  F00A         	goto	i2u274_40
  1201   001410                     i2u274_41:
  1202   001410  EF0C  F00A         	goto	i2l1261
  1203   001414                     i2u274_40:
  1204   001414                     
  1205                           ;MCAL_Layer/Interrupt/mcal_interrupt_manager.c: 150:         CCP2_ISR();
  1206   001414  EC9D  F00A         	call	_CCP2_ISR	;wreg free
  1207   001418                     i2l1261:
  1208   001418  9271               	bcf	int$flags,1,c	;clear compiler interrupt flag (level 2)
  1209   00141A  0011               	retfie		f
  1210   00141C                     __end_of_InterruptManager:
  1211                           	callstack 0
  1212                           
  1213 ;; *************** function _TMR3_ISR *****************
  1214 ;; Defined at:
  1215 ;;		line 102 in file "MCAL_Layer/Timer3/hal_timr3.c"
  1216 ;; Parameters:    Size  Location     Type
  1217 ;;		None
  1218 ;; Auto vars:     Size  Location     Type
  1219 ;;		None
  1220 ;; Return value:  Size  Location     Type
  1221 ;;                  1    wreg      void 
  1222 ;; Registers used:
  1223 ;;		wreg, status,2
  1224 ;; Tracked objects:
  1225 ;;		On entry : 0/0
  1226 ;;		On exit  : 0/0
  1227 ;;		Unchanged: 0/0
  1228 ;; Data sizes:     COMRAM   BANK0   BANK1   BANK2   BANK3   BANK4   BANK5   BANK6   BANK7   BANK8   BANK9  BANK10  BANK1
      +1  BANK12  BANK13  BANK14  BANK15
  1229 ;;      Params:         0       0       0       0       0       0       0       0       0       0       0       0       
      +0       0       0       0       0
  1230 ;;      Locals:         0       0       0       0       0       0       0       0       0       0       0       0       
      +0       0       0       0       0
  1231 ;;      Temps:          0       0       0       0       0       0       0       0       0       0       0       0       
      +0       0       0       0       0
  1232 ;;      Totals:         0       0       0       0       0       0       0       0       0       0       0       0       
      +0       0       0       0       0
  1233 ;;Total ram usage:        0 bytes
  1234 ;; Hardware stack levels used: 1
  1235 ;; This function calls:
  1236 ;;		Nothing
  1237 ;; This function is called by:
  1238 ;;		_InterruptManager
  1239 ;; This function uses a non-reentrant model
  1240 ;;
  1241                           
  1242                           	psect	text4
  1243   0014F0                     __ptext4:
  1244                           	callstack 0
  1245   0014F0                     _TMR3_ISR:
  1246                           	callstack 27
  1247   0014F0                     
  1248                           ;MCAL_Layer/Timer3/hal_timr3.c: 103:     (PIR2bits.TMR3IF = 0);
  1249   0014F0  92A1               	bcf	161,1,c	;volatile
  1250   0014F2                     
  1251                           ;MCAL_Layer/Timer3/hal_timr3.c: 104:     TMR3H = (timer3_preload) >> 8;
  1252   0014F2  5010               	movf	(_timer3_preload+1)^0,w,c
  1253   0014F4  6EB3               	movwf	179,c	;volatile
  1254   0014F6                     
  1255                           ;MCAL_Layer/Timer3/hal_timr3.c: 105:     TMR3L = (uint8)(timer3_preload);
  1256   0014F6  C00F  FFB2         	movff	_timer3_preload,4018	;volatile
  1257   0014FA  0012               	return		;funcret
  1258   0014FC                     __end_of_TMR3_ISR:
  1259                           	callstack 0
  1260                           
  1261 ;; *************** function _TMR2_ISR *****************
  1262 ;; Defined at:
  1263 ;;		line 95 in file "MCAL_Layer/Timer2/hal_timr2.c"
  1264 ;; Parameters:    Size  Location     Type
  1265 ;;		None
  1266 ;; Auto vars:     Size  Location     Type
  1267 ;;		None
  1268 ;; Return value:  Size  Location     Type
  1269 ;;                  1    wreg      void 
  1270 ;; Registers used:
  1271 ;;		None
  1272 ;; Tracked objects:
  1273 ;;		On entry : 0/0
  1274 ;;		On exit  : 0/0
  1275 ;;		Unchanged: 0/0
  1276 ;; Data sizes:     COMRAM   BANK0   BANK1   BANK2   BANK3   BANK4   BANK5   BANK6   BANK7   BANK8   BANK9  BANK10  BANK1
      +1  BANK12  BANK13  BANK14  BANK15
  1277 ;;      Params:         0       0       0       0       0       0       0       0       0       0       0       0       
      +0       0       0       0       0
  1278 ;;      Locals:         0       0       0       0       0       0       0       0       0       0       0       0       
      +0       0       0       0       0
  1279 ;;      Temps:          0       0       0       0       0       0       0       0       0       0       0       0       
      +0       0       0       0       0
  1280 ;;      Totals:         0       0       0       0       0       0       0       0       0       0       0       0       
      +0       0       0       0       0
  1281 ;;Total ram usage:        0 bytes
  1282 ;; Hardware stack levels used: 1
  1283 ;; This function calls:
  1284 ;;		Nothing
  1285 ;; This function is called by:
  1286 ;;		_InterruptManager
  1287 ;; This function uses a non-reentrant model
  1288 ;;
  1289                           
  1290                           	psect	text5
  1291   001514                     __ptext5:
  1292                           	callstack 0
  1293   001514                     _TMR2_ISR:
  1294                           	callstack 27
  1295   001514                     
  1296                           ;MCAL_Layer/Timer2/hal_timr2.c: 96:     (PIR1bits.TMR2IF = 0);
  1297   001514  929E               	bcf	158,1,c	;volatile
  1298                           
  1299                           ;MCAL_Layer/Timer2/hal_timr2.c: 97:     TMR2 = timer2_preload;
  1300   001516  C03F  FFCC         	movff	_timer2_preload,4044	;volatile
  1301   00151A  0012               	return		;funcret
  1302   00151C                     __end_of_TMR2_ISR:
  1303                           	callstack 0
  1304                           
  1305 ;; *************** function _TMR1_ISR *****************
  1306 ;; Defined at:
  1307 ;;		line 102 in file "MCAL_Layer/Timer1/hal_timr1.c"
  1308 ;; Parameters:    Size  Location     Type
  1309 ;;		None
  1310 ;; Auto vars:     Size  Location     Type
  1311 ;;		None
  1312 ;; Return value:  Size  Location     Type
  1313 ;;                  1    wreg      void 
  1314 ;; Registers used:
  1315 ;;		wreg, status,2
  1316 ;; Tracked objects:
  1317 ;;		On entry : 0/0
  1318 ;;		On exit  : 0/0
  1319 ;;		Unchanged: 0/0
  1320 ;; Data sizes:     COMRAM   BANK0   BANK1   BANK2   BANK3   BANK4   BANK5   BANK6   BANK7   BANK8   BANK9  BANK10  BANK1
      +1  BANK12  BANK13  BANK14  BANK15
  1321 ;;      Params:         0       0       0       0       0       0       0       0       0       0       0       0       
      +0       0       0       0       0
  1322 ;;      Locals:         0       0       0       0       0       0       0       0       0       0       0       0       
      +0       0       0       0       0
  1323 ;;      Temps:          0       0       0       0       0       0       0       0       0       0       0       0       
      +0       0       0       0       0
  1324 ;;      Totals:         0       0       0       0       0       0       0       0       0       0       0       0       
      +0       0       0       0       0
  1325 ;;Total ram usage:        0 bytes
  1326 ;; Hardware stack levels used: 1
  1327 ;; This function calls:
  1328 ;;		Nothing
  1329 ;; This function is called by:
  1330 ;;		_InterruptManager
  1331 ;; This function uses a non-reentrant model
  1332 ;;
  1333                           
  1334                           	psect	text6
  1335   0014FC                     __ptext6:
  1336                           	callstack 0
  1337   0014FC                     _TMR1_ISR:
  1338                           	callstack 27
  1339   0014FC                     
  1340                           ;MCAL_Layer/Timer1/hal_timr1.c: 103:     (PIR1bits.TMR1IF = 0);
  1341   0014FC  909E               	bcf	158,0,c	;volatile
  1342   0014FE                     
  1343                           ;MCAL_Layer/Timer1/hal_timr1.c: 104:     TMR1H = (timer1_preload) >> 8;
  1344   0014FE  5016               	movf	(_timer1_preload+1)^0,w,c	;volatile
  1345   001500  6ECF               	movwf	207,c	;volatile
  1346   001502                     
  1347                           ;MCAL_Layer/Timer1/hal_timr1.c: 105:     TMR1L = (uint8)(timer1_preload);
  1348   001502  C015  FFCE         	movff	_timer1_preload,4046	;volatile
  1349   001506  0012               	return		;funcret
  1350   001508                     __end_of_TMR1_ISR:
  1351                           	callstack 0
  1352                           
  1353 ;; *************** function _TMR0_ISR *****************
  1354 ;; Defined at:
  1355 ;;		line 107 in file "MCAL_Layer/Timer0/hal_timr0.c"
  1356 ;; Parameters:    Size  Location     Type
  1357 ;;		None
  1358 ;; Auto vars:     Size  Location     Type
  1359 ;;		None
  1360 ;; Return value:  Size  Location     Type
  1361 ;;                  1    wreg      void 
  1362 ;; Registers used:
  1363 ;;		wreg, status,2
  1364 ;; Tracked objects:
  1365 ;;		On entry : 0/0
  1366 ;;		On exit  : 0/0
  1367 ;;		Unchanged: 0/0
  1368 ;; Data sizes:     COMRAM   BANK0   BANK1   BANK2   BANK3   BANK4   BANK5   BANK6   BANK7   BANK8   BANK9  BANK10  BANK1
      +1  BANK12  BANK13  BANK14  BANK15
  1369 ;;      Params:         0       0       0       0       0       0       0       0       0       0       0       0       
      +0       0       0       0       0
  1370 ;;      Locals:         0       0       0       0       0       0       0       0       0       0       0       0       
      +0       0       0       0       0
  1371 ;;      Temps:          0       0       0       0       0       0       0       0       0       0       0       0       
      +0       0       0       0       0
  1372 ;;      Totals:         0       0       0       0       0       0       0       0       0       0       0       0       
      +0       0       0       0       0
  1373 ;;Total ram usage:        0 bytes
  1374 ;; Hardware stack levels used: 1
  1375 ;; This function calls:
  1376 ;;		Nothing
  1377 ;; This function is called by:
  1378 ;;		_InterruptManager
  1379 ;; This function uses a non-reentrant model
  1380 ;;
  1381                           
  1382                           	psect	text7
  1383   001508                     __ptext7:
  1384                           	callstack 0
  1385   001508                     _TMR0_ISR:
  1386                           	callstack 27
  1387   001508                     
  1388                           ;MCAL_Layer/Timer0/hal_timr0.c: 108:     (INTCONbits.TMR0IF = 0);
  1389   001508  94F2               	bcf	242,2,c	;volatile
  1390   00150A                     
  1391                           ;MCAL_Layer/Timer0/hal_timr0.c: 109:     TMR0H = (timer0_preload) >> 8;
  1392   00150A  501A               	movf	(_timer0_preload+1)^0,w,c
  1393   00150C  6ED7               	movwf	215,c	;volatile
  1394   00150E                     
  1395                           ;MCAL_Layer/Timer0/hal_timr0.c: 110:     TMR0L = (uint8)(timer0_preload);
  1396   00150E  C019  FFD6         	movff	_timer0_preload,4054	;volatile
  1397   001512  0012               	return		;funcret
  1398   001514                     __end_of_TMR0_ISR:
  1399                           	callstack 0
  1400                           
  1401 ;; *************** function _RB7_ISR *****************
  1402 ;; Defined at:
  1403 ;;		line 164 in file "MCAL_Layer/Interrupt/mcal_external_interrupt.c"
  1404 ;; Parameters:    Size  Location     Type
  1405 ;;  RB7_Source      1    wreg     unsigned char 
  1406 ;; Auto vars:     Size  Location     Type
  1407 ;;  RB7_Source      1    0[COMRAM] unsigned char 
  1408 ;; Return value:  Size  Location     Type
  1409 ;;                  1    wreg      void 
  1410 ;; Registers used:
  1411 ;;		wreg, status,2, status,0
  1412 ;; Tracked objects:
  1413 ;;		On entry : 0/0
  1414 ;;		On exit  : 0/0
  1415 ;;		Unchanged: 0/0
  1416 ;; Data sizes:     COMRAM   BANK0   BANK1   BANK2   BANK3   BANK4   BANK5   BANK6   BANK7   BANK8   BANK9  BANK10  BANK1
      +1  BANK12  BANK13  BANK14  BANK15
  1417 ;;      Params:         0       0       0       0       0       0       0       0       0       0       0       0       
      +0       0       0       0       0
  1418 ;;      Locals:         1       0       0       0       0       0       0       0       0       0       0       0       
      +0       0       0       0       0
  1419 ;;      Temps:          0       0       0       0       0       0       0       0       0       0       0       0       
      +0       0       0       0       0
  1420 ;;      Totals:         1       0       0       0       0       0       0       0       0       0       0       0       
      +0       0       0       0       0
  1421 ;;Total ram usage:        1 bytes
  1422 ;; Hardware stack levels used: 1
  1423 ;; This function calls:
  1424 ;;		Nothing
  1425 ;; This function is called by:
  1426 ;;		_InterruptManager
  1427 ;; This function uses a non-reentrant model
  1428 ;;
  1429                           
  1430                           	psect	text8
  1431   00147C                     __ptext8:
  1432                           	callstack 0
  1433   00147C                     _RB7_ISR:
  1434                           	callstack 27
  1435                           
  1436                           ;incstack = 0
  1437                           ;RB7_ISR@RB7_Source stored from wreg
  1438   00147C  6E70               	movwf	RB7_ISR@RB7_Source^0,c
  1439   00147E                     
  1440                           ;MCAL_Layer/Interrupt/mcal_external_interrupt.c: 166:     (INTCONbits.RBIF = 0);
  1441   00147E  90F2               	bcf	242,0,c	;volatile
  1442   001480                     
  1443                           ;MCAL_Layer/Interrupt/mcal_external_interrupt.c: 169:     if(0 == RB7_Source){
  1444   001480  5070               	movf	RB7_ISR@RB7_Source^0,w,c
  1445   001482  A4D8               	btfss	status,2,c
  1446   001484  EF46  F00A         	goto	i2u35_41
  1447   001488  EF48  F00A         	goto	i2u35_40
  1448   00148C                     i2u35_41:
  1449   00148C  EF4A  F00A         	goto	i2l2748
  1450   001490                     i2u35_40:
  1451   001490  EF4A  F00A         	goto	i2l1041
  1452   001494                     i2l2748:
  1453   001494                     i2l1041:
  1454   001494  0012               	return		;funcret
  1455   001496                     __end_of_RB7_ISR:
  1456                           	callstack 0
  1457                           
  1458 ;; *************** function _RB6_ISR *****************
  1459 ;; Defined at:
  1460 ;;		line 145 in file "MCAL_Layer/Interrupt/mcal_external_interrupt.c"
  1461 ;; Parameters:    Size  Location     Type
  1462 ;;  RB6_Source      1    wreg     unsigned char 
  1463 ;; Auto vars:     Size  Location     Type
  1464 ;;  RB6_Source      1    0[COMRAM] unsigned char 
  1465 ;; Return value:  Size  Location     Type
  1466 ;;                  1    wreg      void 
  1467 ;; Registers used:
  1468 ;;		wreg, status,2, status,0
  1469 ;; Tracked objects:
  1470 ;;		On entry : 0/0
  1471 ;;		On exit  : 0/0
  1472 ;;		Unchanged: 0/0
  1473 ;; Data sizes:     COMRAM   BANK0   BANK1   BANK2   BANK3   BANK4   BANK5   BANK6   BANK7   BANK8   BANK9  BANK10  BANK1
      +1  BANK12  BANK13  BANK14  BANK15
  1474 ;;      Params:         0       0       0       0       0       0       0       0       0       0       0       0       
      +0       0       0       0       0
  1475 ;;      Locals:         1       0       0       0       0       0       0       0       0       0       0       0       
      +0       0       0       0       0
  1476 ;;      Temps:          0       0       0       0       0       0       0       0       0       0       0       0       
      +0       0       0       0       0
  1477 ;;      Totals:         1       0       0       0       0       0       0       0       0       0       0       0       
      +0       0       0       0       0
  1478 ;;Total ram usage:        1 bytes
  1479 ;; Hardware stack levels used: 1
  1480 ;; This function calls:
  1481 ;;		Nothing
  1482 ;; This function is called by:
  1483 ;;		_InterruptManager
  1484 ;; This function uses a non-reentrant model
  1485 ;;
  1486                           
  1487                           	psect	text9
  1488   001496                     __ptext9:
  1489                           	callstack 0
  1490   001496                     _RB6_ISR:
  1491                           	callstack 27
  1492                           
  1493                           ;incstack = 0
  1494                           ;RB6_ISR@RB6_Source stored from wreg
  1495   001496  6E70               	movwf	RB6_ISR@RB6_Source^0,c
  1496   001498                     
  1497                           ;MCAL_Layer/Interrupt/mcal_external_interrupt.c: 147:     (INTCONbits.RBIF = 0);
  1498   001498  90F2               	bcf	242,0,c	;volatile
  1499   00149A                     
  1500                           ;MCAL_Layer/Interrupt/mcal_external_interrupt.c: 150:     if(0 == RB6_Source){
  1501   00149A  5070               	movf	RB6_ISR@RB6_Source^0,w,c
  1502   00149C  A4D8               	btfss	status,2,c
  1503   00149E  EF53  F00A         	goto	i2u34_41
  1504   0014A2  EF55  F00A         	goto	i2u34_40
  1505   0014A6                     i2u34_41:
  1506   0014A6  EF57  F00A         	goto	i2l2734
  1507   0014AA                     i2u34_40:
  1508   0014AA  EF57  F00A         	goto	i2l1030
  1509   0014AE                     i2l2734:
  1510   0014AE                     i2l1030:
  1511   0014AE  0012               	return		;funcret
  1512   0014B0                     __end_of_RB6_ISR:
  1513                           	callstack 0
  1514                           
  1515 ;; *************** function _RB5_ISR *****************
  1516 ;; Defined at:
  1517 ;;		line 126 in file "MCAL_Layer/Interrupt/mcal_external_interrupt.c"
  1518 ;; Parameters:    Size  Location     Type
  1519 ;;  RB5_Source      1    wreg     unsigned char 
  1520 ;; Auto vars:     Size  Location     Type
  1521 ;;  RB5_Source      1    0[COMRAM] unsigned char 
  1522 ;; Return value:  Size  Location     Type
  1523 ;;                  1    wreg      void 
  1524 ;; Registers used:
  1525 ;;		wreg, status,2, status,0
  1526 ;; Tracked objects:
  1527 ;;		On entry : 0/0
  1528 ;;		On exit  : 0/0
  1529 ;;		Unchanged: 0/0
  1530 ;; Data sizes:     COMRAM   BANK0   BANK1   BANK2   BANK3   BANK4   BANK5   BANK6   BANK7   BANK8   BANK9  BANK10  BANK1
      +1  BANK12  BANK13  BANK14  BANK15
  1531 ;;      Params:         0       0       0       0       0       0       0       0       0       0       0       0       
      +0       0       0       0       0
  1532 ;;      Locals:         1       0       0       0       0       0       0       0       0       0       0       0       
      +0       0       0       0       0
  1533 ;;      Temps:          0       0       0       0       0       0       0       0       0       0       0       0       
      +0       0       0       0       0
  1534 ;;      Totals:         1       0       0       0       0       0       0       0       0       0       0       0       
      +0       0       0       0       0
  1535 ;;Total ram usage:        1 bytes
  1536 ;; Hardware stack levels used: 1
  1537 ;; This function calls:
  1538 ;;		Nothing
  1539 ;; This function is called by:
  1540 ;;		_InterruptManager
  1541 ;; This function uses a non-reentrant model
  1542 ;;
  1543                           
  1544                           	psect	text10
  1545   0014B0                     __ptext10:
  1546                           	callstack 0
  1547   0014B0                     _RB5_ISR:
  1548                           	callstack 27
  1549                           
  1550                           ;incstack = 0
  1551                           ;RB5_ISR@RB5_Source stored from wreg
  1552   0014B0  6E70               	movwf	RB5_ISR@RB5_Source^0,c
  1553   0014B2                     
  1554                           ;MCAL_Layer/Interrupt/mcal_external_interrupt.c: 128:     (INTCONbits.RBIF = 0);
  1555   0014B2  90F2               	bcf	242,0,c	;volatile
  1556   0014B4                     
  1557                           ;MCAL_Layer/Interrupt/mcal_external_interrupt.c: 131:     if(0 == RB5_Source){
  1558   0014B4  5070               	movf	RB5_ISR@RB5_Source^0,w,c
  1559   0014B6  A4D8               	btfss	status,2,c
  1560   0014B8  EF60  F00A         	goto	i2u33_41
  1561   0014BC  EF62  F00A         	goto	i2u33_40
  1562   0014C0                     i2u33_41:
  1563   0014C0  EF64  F00A         	goto	i2l2720
  1564   0014C4                     i2u33_40:
  1565   0014C4  EF64  F00A         	goto	i2l1019
  1566   0014C8                     i2l2720:
  1567   0014C8                     i2l1019:
  1568   0014C8  0012               	return		;funcret
  1569   0014CA                     __end_of_RB5_ISR:
  1570                           	callstack 0
  1571                           
  1572 ;; *************** function _RB4_ISR *****************
  1573 ;; Defined at:
  1574 ;;		line 107 in file "MCAL_Layer/Interrupt/mcal_external_interrupt.c"
  1575 ;; Parameters:    Size  Location     Type
  1576 ;;  RB4_Source      1    wreg     unsigned char 
  1577 ;; Auto vars:     Size  Location     Type
  1578 ;;  RB4_Source      1    0[COMRAM] unsigned char 
  1579 ;; Return value:  Size  Location     Type
  1580 ;;                  1    wreg      void 
  1581 ;; Registers used:
  1582 ;;		wreg, status,2, status,0
  1583 ;; Tracked objects:
  1584 ;;		On entry : 0/0
  1585 ;;		On exit  : 0/0
  1586 ;;		Unchanged: 0/0
  1587 ;; Data sizes:     COMRAM   BANK0   BANK1   BANK2   BANK3   BANK4   BANK5   BANK6   BANK7   BANK8   BANK9  BANK10  BANK1
      +1  BANK12  BANK13  BANK14  BANK15
  1588 ;;      Params:         0       0       0       0       0       0       0       0       0       0       0       0       
      +0       0       0       0       0
  1589 ;;      Locals:         1       0       0       0       0       0       0       0       0       0       0       0       
      +0       0       0       0       0
  1590 ;;      Temps:          0       0       0       0       0       0       0       0       0       0       0       0       
      +0       0       0       0       0
  1591 ;;      Totals:         1       0       0       0       0       0       0       0       0       0       0       0       
      +0       0       0       0       0
  1592 ;;Total ram usage:        1 bytes
  1593 ;; Hardware stack levels used: 1
  1594 ;; This function calls:
  1595 ;;		Nothing
  1596 ;; This function is called by:
  1597 ;;		_InterruptManager
  1598 ;; This function uses a non-reentrant model
  1599 ;;
  1600                           
  1601                           	psect	text11
  1602   0014CA                     __ptext11:
  1603                           	callstack 0
  1604   0014CA                     _RB4_ISR:
  1605                           	callstack 27
  1606                           
  1607                           ;incstack = 0
  1608                           ;RB4_ISR@RB4_Source stored from wreg
  1609   0014CA  6E70               	movwf	RB4_ISR@RB4_Source^0,c
  1610   0014CC                     
  1611                           ;MCAL_Layer/Interrupt/mcal_external_interrupt.c: 109:     (INTCONbits.RBIF = 0);
  1612   0014CC  90F2               	bcf	242,0,c	;volatile
  1613   0014CE                     
  1614                           ;MCAL_Layer/Interrupt/mcal_external_interrupt.c: 112:     if(0 == RB4_Source){
  1615   0014CE  5070               	movf	RB4_ISR@RB4_Source^0,w,c
  1616   0014D0  A4D8               	btfss	status,2,c
  1617   0014D2  EF6D  F00A         	goto	i2u32_41
  1618   0014D6  EF6F  F00A         	goto	i2u32_40
  1619   0014DA                     i2u32_41:
  1620   0014DA  EF71  F00A         	goto	i2l2706
  1621   0014DE                     i2u32_40:
  1622   0014DE  EF71  F00A         	goto	i2l1008
  1623   0014E2                     i2l2706:
  1624   0014E2                     i2l1008:
  1625   0014E2  0012               	return		;funcret
  1626   0014E4                     __end_of_RB4_ISR:
  1627                           	callstack 0
  1628                           
  1629 ;; *************** function _MSSP_SPI_ISR *****************
  1630 ;; Defined at:
  1631 ;;		line 105 in file "MCAL_Layer/SPI/hal_spi.c"
  1632 ;; Parameters:    Size  Location     Type
  1633 ;;		None
  1634 ;; Auto vars:     Size  Location     Type
  1635 ;;		None
  1636 ;; Return value:  Size  Location     Type
  1637 ;;                  1    wreg      void 
  1638 ;; Registers used:
  1639 ;;		None
  1640 ;; Tracked objects:
  1641 ;;		On entry : 0/0
  1642 ;;		On exit  : 0/0
  1643 ;;		Unchanged: 0/0
  1644 ;; Data sizes:     COMRAM   BANK0   BANK1   BANK2   BANK3   BANK4   BANK5   BANK6   BANK7   BANK8   BANK9  BANK10  BANK1
      +1  BANK12  BANK13  BANK14  BANK15
  1645 ;;      Params:         0       0       0       0       0       0       0       0       0       0       0       0       
      +0       0       0       0       0
  1646 ;;      Locals:         0       0       0       0       0       0       0       0       0       0       0       0       
      +0       0       0       0       0
  1647 ;;      Temps:          0       0       0       0       0       0       0       0       0       0       0       0       
      +0       0       0       0       0
  1648 ;;      Totals:         0       0       0       0       0       0       0       0       0       0       0       0       
      +0       0       0       0       0
  1649 ;;Total ram usage:        0 bytes
  1650 ;; Hardware stack levels used: 1
  1651 ;; This function calls:
  1652 ;;		Nothing
  1653 ;; This function is called by:
  1654 ;;		_InterruptManager
  1655 ;; This function uses a non-reentrant model
  1656 ;;
  1657                           
  1658                           	psect	text12
  1659   001548                     __ptext12:
  1660                           	callstack 0
  1661   001548                     _MSSP_SPI_ISR:
  1662                           	callstack 27
  1663   001548  0012               	return		;funcret
  1664   00154A                     __end_of_MSSP_SPI_ISR:
  1665                           	callstack 0
  1666                           
  1667 ;; *************** function _MSSP_I2C_ISR *****************
  1668 ;; Defined at:
  1669 ;;		line 242 in file "MCAL_Layer/I2C/hal_i2c.c"
  1670 ;; Parameters:    Size  Location     Type
  1671 ;;		None
  1672 ;; Auto vars:     Size  Location     Type
  1673 ;;		None
  1674 ;; Return value:  Size  Location     Type
  1675 ;;                  1    wreg      void 
  1676 ;; Registers used:
  1677 ;;		None
  1678 ;; Tracked objects:
  1679 ;;		On entry : 0/0
  1680 ;;		On exit  : 0/0
  1681 ;;		Unchanged: 0/0
  1682 ;; Data sizes:     COMRAM   BANK0   BANK1   BANK2   BANK3   BANK4   BANK5   BANK6   BANK7   BANK8   BANK9  BANK10  BANK1
      +1  BANK12  BANK13  BANK14  BANK15
  1683 ;;      Params:         0       0       0       0       0       0       0       0       0       0       0       0       
      +0       0       0       0       0
  1684 ;;      Locals:         0       0       0       0       0       0       0       0       0       0       0       0       
      +0       0       0       0       0
  1685 ;;      Temps:          0       0       0       0       0       0       0       0       0       0       0       0       
      +0       0       0       0       0
  1686 ;;      Totals:         0       0       0       0       0       0       0       0       0       0       0       0       
      +0       0       0       0       0
  1687 ;;Total ram usage:        0 bytes
  1688 ;; Hardware stack levels used: 1
  1689 ;; This function calls:
  1690 ;;		Nothing
  1691 ;; This function is called by:
  1692 ;;		_InterruptManager
  1693 ;; This function uses a non-reentrant model
  1694 ;;
  1695                           
  1696                           	psect	text13
  1697   001522                     __ptext13:
  1698                           	callstack 0
  1699   001522                     _MSSP_I2C_ISR:
  1700                           	callstack 27
  1701   001522                     
  1702                           ;MCAL_Layer/I2C/hal_i2c.c: 244:     (PIR1bits.SSPIF = 0);
  1703   001522  969E               	bcf	158,3,c	;volatile
  1704   001524  0012               	return		;funcret
  1705   001526                     __end_of_MSSP_I2C_ISR:
  1706                           	callstack 0
  1707                           
  1708 ;; *************** function _MSSP_I2C_BC_ISR *****************
  1709 ;; Defined at:
  1710 ;;		line 251 in file "MCAL_Layer/I2C/hal_i2c.c"
  1711 ;; Parameters:    Size  Location     Type
  1712 ;;		None
  1713 ;; Auto vars:     Size  Location     Type
  1714 ;;		None
  1715 ;; Return value:  Size  Location     Type
  1716 ;;                  1    wreg      void 
  1717 ;; Registers used:
  1718 ;;		None
  1719 ;; Tracked objects:
  1720 ;;		On entry : 0/0
  1721 ;;		On exit  : 0/0
  1722 ;;		Unchanged: 0/0
  1723 ;; Data sizes:     COMRAM   BANK0   BANK1   BANK2   BANK3   BANK4   BANK5   BANK6   BANK7   BANK8   BANK9  BANK10  BANK1
      +1  BANK12  BANK13  BANK14  BANK15
  1724 ;;      Params:         0       0       0       0       0       0       0       0       0       0       0       0       
      +0       0       0       0       0
  1725 ;;      Locals:         0       0       0       0       0       0       0       0       0       0       0       0       
      +0       0       0       0       0
  1726 ;;      Temps:          0       0       0       0       0       0       0       0       0       0       0       0       
      +0       0       0       0       0
  1727 ;;      Totals:         0       0       0       0       0       0       0       0       0       0       0       0       
      +0       0       0       0       0
  1728 ;;Total ram usage:        0 bytes
  1729 ;; Hardware stack levels used: 1
  1730 ;; This function calls:
  1731 ;;		Nothing
  1732 ;; This function is called by:
  1733 ;;		_InterruptManager
  1734 ;; This function uses a non-reentrant model
  1735 ;;
  1736                           
  1737                           	psect	text14
  1738   001526                     __ptext14:
  1739                           	callstack 0
  1740   001526                     _MSSP_I2C_BC_ISR:
  1741                           	callstack 27
  1742   001526                     
  1743                           ;MCAL_Layer/I2C/hal_i2c.c: 253:     (PIR2bits.BCLIF = 0);
  1744   001526  96A1               	bcf	161,3,c	;volatile
  1745   001528  0012               	return		;funcret
  1746   00152A                     __end_of_MSSP_I2C_BC_ISR:
  1747                           	callstack 0
  1748                           
  1749 ;; *************** function _INT2_ISR *****************
  1750 ;; Defined at:
  1751 ;;		line 95 in file "MCAL_Layer/Interrupt/mcal_external_interrupt.c"
  1752 ;; Parameters:    Size  Location     Type
  1753 ;;		None
  1754 ;; Auto vars:     Size  Location     Type
  1755 ;;		None
  1756 ;; Return value:  Size  Location     Type
  1757 ;;                  1    wreg      void 
  1758 ;; Registers used:
  1759 ;;		None
  1760 ;; Tracked objects:
  1761 ;;		On entry : 0/0
  1762 ;;		On exit  : 0/0
  1763 ;;		Unchanged: 0/0
  1764 ;; Data sizes:     COMRAM   BANK0   BANK1   BANK2   BANK3   BANK4   BANK5   BANK6   BANK7   BANK8   BANK9  BANK10  BANK1
      +1  BANK12  BANK13  BANK14  BANK15
  1765 ;;      Params:         0       0       0       0       0       0       0       0       0       0       0       0       
      +0       0       0       0       0
  1766 ;;      Locals:         0       0       0       0       0       0       0       0       0       0       0       0       
      +0       0       0       0       0
  1767 ;;      Temps:          0       0       0       0       0       0       0       0       0       0       0       0       
      +0       0       0       0       0
  1768 ;;      Totals:         0       0       0       0       0       0       0       0       0       0       0       0       
      +0       0       0       0       0
  1769 ;;Total ram usage:        0 bytes
  1770 ;; Hardware stack levels used: 1
  1771 ;; This function calls:
  1772 ;;		Nothing
  1773 ;; This function is called by:
  1774 ;;		_InterruptManager
  1775 ;; This function uses a non-reentrant model
  1776 ;;
  1777                           
  1778                           	psect	text15
  1779   00152A                     __ptext15:
  1780                           	callstack 0
  1781   00152A                     _INT2_ISR:
  1782                           	callstack 27
  1783   00152A                     
  1784                           ;MCAL_Layer/Interrupt/mcal_external_interrupt.c: 97:     (INTCON3bits.INT2IF = 0);
  1785   00152A  92F0               	bcf	240,1,c	;volatile
  1786   00152C  0012               	return		;funcret
  1787   00152E                     __end_of_INT2_ISR:
  1788                           	callstack 0
  1789                           
  1790 ;; *************** function _INT1_ISR *****************
  1791 ;; Defined at:
  1792 ;;		line 86 in file "MCAL_Layer/Interrupt/mcal_external_interrupt.c"
  1793 ;; Parameters:    Size  Location     Type
  1794 ;;		None
  1795 ;; Auto vars:     Size  Location     Type
  1796 ;;		None
  1797 ;; Return value:  Size  Location     Type
  1798 ;;                  1    wreg      void 
  1799 ;; Registers used:
  1800 ;;		None
  1801 ;; Tracked objects:
  1802 ;;		On entry : 0/0
  1803 ;;		On exit  : 0/0
  1804 ;;		Unchanged: 0/0
  1805 ;; Data sizes:     COMRAM   BANK0   BANK1   BANK2   BANK3   BANK4   BANK5   BANK6   BANK7   BANK8   BANK9  BANK10  BANK1
      +1  BANK12  BANK13  BANK14  BANK15
  1806 ;;      Params:         0       0       0       0       0       0       0       0       0       0       0       0       
      +0       0       0       0       0
  1807 ;;      Locals:         0       0       0       0       0       0       0       0       0       0       0       0       
      +0       0       0       0       0
  1808 ;;      Temps:          0       0       0       0       0       0       0       0       0       0       0       0       
      +0       0       0       0       0
  1809 ;;      Totals:         0       0       0       0       0       0       0       0       0       0       0       0       
      +0       0       0       0       0
  1810 ;;Total ram usage:        0 bytes
  1811 ;; Hardware stack levels used: 1
  1812 ;; This function calls:
  1813 ;;		Nothing
  1814 ;; This function is called by:
  1815 ;;		_InterruptManager
  1816 ;; This function uses a non-reentrant model
  1817 ;;
  1818                           
  1819                           	psect	text16
  1820   00152E                     __ptext16:
  1821                           	callstack 0
  1822   00152E                     _INT1_ISR:
  1823                           	callstack 27
  1824   00152E                     
  1825                           ;MCAL_Layer/Interrupt/mcal_external_interrupt.c: 88:     (INTCON3bits.INT1IF = 0);
  1826   00152E  90F0               	bcf	240,0,c	;volatile
  1827   001530  0012               	return		;funcret
  1828   001532                     __end_of_INT1_ISR:
  1829                           	callstack 0
  1830                           
  1831 ;; *************** function _INT0_ISR *****************
  1832 ;; Defined at:
  1833 ;;		line 74 in file "MCAL_Layer/Interrupt/mcal_external_interrupt.c"
  1834 ;; Parameters:    Size  Location     Type
  1835 ;;		None
  1836 ;; Auto vars:     Size  Location     Type
  1837 ;;		None
  1838 ;; Return value:  Size  Location     Type
  1839 ;;                  1    wreg      void 
  1840 ;; Registers used:
  1841 ;;		None
  1842 ;; Tracked objects:
  1843 ;;		On entry : 0/0
  1844 ;;		On exit  : 0/0
  1845 ;;		Unchanged: 0/0
  1846 ;; Data sizes:     COMRAM   BANK0   BANK1   BANK2   BANK3   BANK4   BANK5   BANK6   BANK7   BANK8   BANK9  BANK10  BANK1
      +1  BANK12  BANK13  BANK14  BANK15
  1847 ;;      Params:         0       0       0       0       0       0       0       0       0       0       0       0       
      +0       0       0       0       0
  1848 ;;      Locals:         0       0       0       0       0       0       0       0       0       0       0       0       
      +0       0       0       0       0
  1849 ;;      Temps:          0       0       0       0       0       0       0       0       0       0       0       0       
      +0       0       0       0       0
  1850 ;;      Totals:         0       0       0       0       0       0       0       0       0       0       0       0       
      +0       0       0       0       0
  1851 ;;Total ram usage:        0 bytes
  1852 ;; Hardware stack levels used: 1
  1853 ;; This function calls:
  1854 ;;		Nothing
  1855 ;; This function is called by:
  1856 ;;		_InterruptManager
  1857 ;; This function uses a non-reentrant model
  1858 ;;
  1859                           
  1860                           	psect	text17
  1861   001532                     __ptext17:
  1862                           	callstack 0
  1863   001532                     _INT0_ISR:
  1864                           	callstack 27
  1865   001532                     
  1866                           ;MCAL_Layer/Interrupt/mcal_external_interrupt.c: 76:     (INTCONbits.INT0IF = 0);
  1867   001532  92F2               	bcf	242,1,c	;volatile
  1868   001534  0012               	return		;funcret
  1869   001536                     __end_of_INT0_ISR:
  1870                           	callstack 0
  1871                           
  1872 ;; *************** function _EUSART_TX_ISR *****************
  1873 ;; Defined at:
  1874 ;;		line 243 in file "MCAL_Layer/usart/hal_usart.c"
  1875 ;; Parameters:    Size  Location     Type
  1876 ;;		None
  1877 ;; Auto vars:     Size  Location     Type
  1878 ;;		None
  1879 ;; Return value:  Size  Location     Type
  1880 ;;                  1    wreg      void 
  1881 ;; Registers used:
  1882 ;;		None
  1883 ;; Tracked objects:
  1884 ;;		On entry : 0/0
  1885 ;;		On exit  : 0/0
  1886 ;;		Unchanged: 0/0
  1887 ;; Data sizes:     COMRAM   BANK0   BANK1   BANK2   BANK3   BANK4   BANK5   BANK6   BANK7   BANK8   BANK9  BANK10  BANK1
      +1  BANK12  BANK13  BANK14  BANK15
  1888 ;;      Params:         0       0       0       0       0       0       0       0       0       0       0       0       
      +0       0       0       0       0
  1889 ;;      Locals:         0       0       0       0       0       0       0       0       0       0       0       0       
      +0       0       0       0       0
  1890 ;;      Temps:          0       0       0       0       0       0       0       0       0       0       0       0       
      +0       0       0       0       0
  1891 ;;      Totals:         0       0       0       0       0       0       0       0       0       0       0       0       
      +0       0       0       0       0
  1892 ;;Total ram usage:        0 bytes
  1893 ;; Hardware stack levels used: 1
  1894 ;; This function calls:
  1895 ;;		Nothing
  1896 ;; This function is called by:
  1897 ;;		_InterruptManager
  1898 ;; This function uses a non-reentrant model
  1899 ;;
  1900                           
  1901                           	psect	text18
  1902   001536                     __ptext18:
  1903                           	callstack 0
  1904   001536                     _EUSART_TX_ISR:
  1905                           	callstack 27
  1906   001536                     
  1907                           ;MCAL_Layer/usart/hal_usart.c: 244:     (PIE1bits.TXIE = 0);
  1908   001536  989D               	bcf	157,4,c	;volatile
  1909   001538  0012               	return		;funcret
  1910   00153A                     __end_of_EUSART_TX_ISR:
  1911                           	callstack 0
  1912                           
  1913 ;; *************** function _EUSART_RX_ISR *****************
  1914 ;; Defined at:
  1915 ;;		line 250 in file "MCAL_Layer/usart/hal_usart.c"
  1916 ;; Parameters:    Size  Location     Type
  1917 ;;		None
  1918 ;; Auto vars:     Size  Location     Type
  1919 ;;		None
  1920 ;; Return value:  Size  Location     Type
  1921 ;;                  1    wreg      void 
  1922 ;; Registers used:
  1923 ;;		wreg, status,2, status,0
  1924 ;; Tracked objects:
  1925 ;;		On entry : 0/0
  1926 ;;		On exit  : 0/0
  1927 ;;		Unchanged: 0/0
  1928 ;; Data sizes:     COMRAM   BANK0   BANK1   BANK2   BANK3   BANK4   BANK5   BANK6   BANK7   BANK8   BANK9  BANK10  BANK1
      +1  BANK12  BANK13  BANK14  BANK15
  1929 ;;      Params:         0       0       0       0       0       0       0       0       0       0       0       0       
      +0       0       0       0       0
  1930 ;;      Locals:         0       0       0       0       0       0       0       0       0       0       0       0       
      +0       0       0       0       0
  1931 ;;      Temps:          0       0       0       0       0       0       0       0       0       0       0       0       
      +0       0       0       0       0
  1932 ;;      Totals:         0       0       0       0       0       0       0       0       0       0       0       0       
      +0       0       0       0       0
  1933 ;;Total ram usage:        0 bytes
  1934 ;; Hardware stack levels used: 1
  1935 ;; This function calls:
  1936 ;;		Nothing
  1937 ;; This function is called by:
  1938 ;;		_InterruptManager
  1939 ;; This function uses a non-reentrant model
  1940 ;;
  1941                           
  1942                           	psect	text19
  1943   00154A                     __ptext19:
  1944                           	callstack 0
  1945   00154A                     _EUSART_RX_ISR:
  1946                           	callstack 27
  1947   00154A  0012               	return		;funcret
  1948   00154C                     __end_of_EUSART_RX_ISR:
  1949                           	callstack 0
  1950                           
  1951 ;; *************** function _CCP2_ISR *****************
  1952 ;; Defined at:
  1953 ;;		line 260 in file "MCAL_Layer/CCP/hal_ccp.c"
  1954 ;; Parameters:    Size  Location     Type
  1955 ;;		None
  1956 ;; Auto vars:     Size  Location     Type
  1957 ;;		None
  1958 ;; Return value:  Size  Location     Type
  1959 ;;                  1    wreg      void 
  1960 ;; Registers used:
  1961 ;;		None
  1962 ;; Tracked objects:
  1963 ;;		On entry : 0/0
  1964 ;;		On exit  : 0/0
  1965 ;;		Unchanged: 0/0
  1966 ;; Data sizes:     COMRAM   BANK0   BANK1   BANK2   BANK3   BANK4   BANK5   BANK6   BANK7   BANK8   BANK9  BANK10  BANK1
      +1  BANK12  BANK13  BANK14  BANK15
  1967 ;;      Params:         0       0       0       0       0       0       0       0       0       0       0       0       
      +0       0       0       0       0
  1968 ;;      Locals:         0       0       0       0       0       0       0       0       0       0       0       0       
      +0       0       0       0       0
  1969 ;;      Temps:          0       0       0       0       0       0       0       0       0       0       0       0       
      +0       0       0       0       0
  1970 ;;      Totals:         0       0       0       0       0       0       0       0       0       0       0       0       
      +0       0       0       0       0
  1971 ;;Total ram usage:        0 bytes
  1972 ;; Hardware stack levels used: 1
  1973 ;; This function calls:
  1974 ;;		Nothing
  1975 ;; This function is called by:
  1976 ;;		_InterruptManager
  1977 ;; This function uses a non-reentrant model
  1978 ;;
  1979                           
  1980                           	psect	text20
  1981   00153A                     __ptext20:
  1982                           	callstack 0
  1983   00153A                     _CCP2_ISR:
  1984                           	callstack 27
  1985   00153A                     
  1986                           ;MCAL_Layer/CCP/hal_ccp.c: 261:     (PIR2bits.CCP2IF = 0);
  1987   00153A  90A1               	bcf	161,0,c	;volatile
  1988   00153C  0012               	return		;funcret
  1989   00153E                     __end_of_CCP2_ISR:
  1990                           	callstack 0
  1991                           
  1992 ;; *************** function _CCP1_ISR *****************
  1993 ;; Defined at:
  1994 ;;		line 252 in file "MCAL_Layer/CCP/hal_ccp.c"
  1995 ;; Parameters:    Size  Location     Type
  1996 ;;		None
  1997 ;; Auto vars:     Size  Location     Type
  1998 ;;		None
  1999 ;; Return value:  Size  Location     Type
  2000 ;;                  1    wreg      void 
  2001 ;; Registers used:
  2002 ;;		None
  2003 ;; Tracked objects:
  2004 ;;		On entry : 0/0
  2005 ;;		On exit  : 0/0
  2006 ;;		Unchanged: 0/0
  2007 ;; Data sizes:     COMRAM   BANK0   BANK1   BANK2   BANK3   BANK4   BANK5   BANK6   BANK7   BANK8   BANK9  BANK10  BANK1
      +1  BANK12  BANK13  BANK14  BANK15
  2008 ;;      Params:         0       0       0       0       0       0       0       0       0       0       0       0       
      +0       0       0       0       0
  2009 ;;      Locals:         0       0       0       0       0       0       0       0       0       0       0       0       
      +0       0       0       0       0
  2010 ;;      Temps:          0       0       0       0       0       0       0       0       0       0       0       0       
      +0       0       0       0       0
  2011 ;;      Totals:         0       0       0       0       0       0       0       0       0       0       0       0       
      +0       0       0       0       0
  2012 ;;Total ram usage:        0 bytes
  2013 ;; Hardware stack levels used: 1
  2014 ;; This function calls:
  2015 ;;		Nothing
  2016 ;; This function is called by:
  2017 ;;		_InterruptManager
  2018 ;; This function uses a non-reentrant model
  2019 ;;
  2020                           
  2021                           	psect	text21
  2022   00153E                     __ptext21:
  2023                           	callstack 0
  2024   00153E                     _CCP1_ISR:
  2025                           	callstack 27
  2026   00153E                     
  2027                           ;MCAL_Layer/CCP/hal_ccp.c: 253:     (PIR1bits.CCP1IF = 0);
  2028   00153E  949E               	bcf	158,2,c	;volatile
  2029   001540  0012               	return		;funcret
  2030   001542                     __end_of_CCP1_ISR:
  2031                           	callstack 0
  2032                           
  2033 ;; *************** function _ADC_ISR *****************
  2034 ;; Defined at:
  2035 ;;		line 296 in file "MCAL_Layer/ADC/hal_adc.c"
  2036 ;; Parameters:    Size  Location     Type
  2037 ;;		None
  2038 ;; Auto vars:     Size  Location     Type
  2039 ;;		None
  2040 ;; Return value:  Size  Location     Type
  2041 ;;                  1    wreg      void 
  2042 ;; Registers used:
  2043 ;;		None
  2044 ;; Tracked objects:
  2045 ;;		On entry : 0/0
  2046 ;;		On exit  : 0/0
  2047 ;;		Unchanged: 0/0
  2048 ;; Data sizes:     COMRAM   BANK0   BANK1   BANK2   BANK3   BANK4   BANK5   BANK6   BANK7   BANK8   BANK9  BANK10  BANK1
      +1  BANK12  BANK13  BANK14  BANK15
  2049 ;;      Params:         0       0       0       0       0       0       0       0       0       0       0       0       
      +0       0       0       0       0
  2050 ;;      Locals:         0       0       0       0       0       0       0       0       0       0       0       0       
      +0       0       0       0       0
  2051 ;;      Temps:          0       0       0       0       0       0       0       0       0       0       0       0       
      +0       0       0       0       0
  2052 ;;      Totals:         0       0       0       0       0       0       0       0       0       0       0       0       
      +0       0       0       0       0
  2053 ;;Total ram usage:        0 bytes
  2054 ;; Hardware stack levels used: 1
  2055 ;; This function calls:
  2056 ;;		Nothing
  2057 ;; This function is called by:
  2058 ;;		_InterruptManager
  2059 ;; This function uses a non-reentrant model
  2060 ;;
  2061                           
  2062                           	psect	text22
  2063   001542                     __ptext22:
  2064                           	callstack 0
  2065   001542                     _ADC_ISR:
  2066                           	callstack 27
  2067   001542                     
  2068                           ;MCAL_Layer/ADC/hal_adc.c: 297:     (PIR1bits.ADIF = 0);
  2069   001542  9C9E               	bcf	158,6,c	;volatile
  2070   001544  0012               	return		;funcret
  2071   001546                     __end_of_ADC_ISR:
  2072                           	callstack 0
  2073                           
  2074                           	psect	rparam
  2075   000000                     
  2076                           	psect	temp
  2077   000071                     btemp:
  2078                           	callstack 0
  2079   000071                     	ds	1
  2080   000000                     int$flags	set	btemp
  2081   000000                     wtemp8	set	btemp+1
  2082   000000                     ttemp5	set	btemp+1
  2083   000000                     ttemp6	set	btemp+4
  2084   000000                     ttemp7	set	btemp+8
  2085                           
  2086                           	psect	idloc
  2087                           
  2088                           ;Config register IDLOC0 @ 0x200000
  2089                           ;	unspecified, using default values
  2090   200000                     	org	2097152
  2091   200000  FF                 	db	255
  2092                           
  2093                           ;Config register IDLOC1 @ 0x200001
  2094                           ;	unspecified, using default values
  2095   200001                     	org	2097153
  2096   200001  FF                 	db	255
  2097                           
  2098                           ;Config register IDLOC2 @ 0x200002
  2099                           ;	unspecified, using default values
  2100   200002                     	org	2097154
  2101   200002  FF                 	db	255
  2102                           
  2103                           ;Config register IDLOC3 @ 0x200003
  2104                           ;	unspecified, using default values
  2105   200003                     	org	2097155
  2106   200003  FF                 	db	255
  2107                           
  2108                           ;Config register IDLOC4 @ 0x200004
  2109                           ;	unspecified, using default values
  2110   200004                     	org	2097156
  2111   200004  FF                 	db	255
  2112                           
  2113                           ;Config register IDLOC5 @ 0x200005
  2114                           ;	unspecified, using default values
  2115   200005                     	org	2097157
  2116   200005  FF                 	db	255
  2117                           
  2118                           ;Config register IDLOC6 @ 0x200006
  2119                           ;	unspecified, using default values
  2120   200006                     	org	2097158
  2121   200006  FF                 	db	255
  2122                           
  2123                           ;Config register IDLOC7 @ 0x200007
  2124                           ;	unspecified, using default values
  2125   200007                     	org	2097159
  2126   200007  FF                 	db	255
  2127                           
  2128                           	psect	config
  2129                           
  2130                           ; Padding undefined space
  2131   300000                     	org	3145728
  2132   300000  FF                 	db	255
  2133                           
  2134                           ;Config register CONFIG1H @ 0x300001
  2135                           ;	Oscillator Selection bits
  2136                           ;	OSC = HS, HS oscillator
  2137                           ;	Fail-Safe Clock Monitor Enable bit
  2138                           ;	FCMEN = OFF, Fail-Safe Clock Monitor disabled
  2139                           ;	Internal/External Oscillator Switchover bit
  2140                           ;	IESO = OFF, Oscillator Switchover mode disabled
  2141   300001                     	org	3145729
  2142   300001  02                 	db	2
  2143                           
  2144                           ;Config register CONFIG2L @ 0x300002
  2145                           ;	Power-up Timer Enable bit
  2146                           ;	PWRT = OFF, PWRT disabled
  2147                           ;	Brown-out Reset Enable bits
  2148                           ;	BOREN = OFF, Brown-out Reset disabled in hardware and software
  2149                           ;	Brown Out Reset Voltage bits
  2150                           ;	BORV = 1, 
  2151   300002                     	org	3145730
  2152   300002  09                 	db	9
  2153                           
  2154                           ;Config register CONFIG2H @ 0x300003
  2155                           ;	Watchdog Timer Enable bit
  2156                           ;	WDT = OFF, WDT disabled (control is placed on the SWDTEN bit)
  2157                           ;	Watchdog Timer Postscale Select bits
  2158                           ;	WDTPS = 512, 1:512
  2159   300003                     	org	3145731
  2160   300003  12                 	db	18
  2161                           
  2162                           ; Padding undefined space
  2163   300004                     	org	3145732
  2164   300004  FF                 	db	255
  2165                           
  2166                           ;Config register CONFIG3H @ 0x300005
  2167                           ;	CCP2 MUX bit
  2168                           ;	CCP2MX = PORTC, CCP2 input/output is multiplexed with RC1
  2169                           ;	PORTB A/D Enable bit
  2170                           ;	PBADEN = OFF, PORTB<4:0> pins are configured as digital I/O on Reset
  2171                           ;	Low-Power Timer1 Oscillator Enable bit
  2172                           ;	LPT1OSC = OFF, Timer1 configured for higher power operation
  2173                           ;	MCLR Pin Enable bit
  2174                           ;	MCLRE = ON, MCLR pin enabled; RE3 input pin disabled
  2175   300005                     	org	3145733
  2176   300005  81                 	db	129
  2177                           
  2178                           ;Config register CONFIG4L @ 0x300006
  2179                           ;	Stack Full/Underflow Reset Enable bit
  2180                           ;	STVREN = ON, Stack full/underflow will cause Reset
  2181                           ;	Single-Supply ICSP Enable bit
  2182                           ;	LVP = OFF, Single-Supply ICSP disabled
  2183                           ;	Extended Instruction Set Enable bit
  2184                           ;	XINST = OFF, Instruction set extension and Indexed Addressing mode disabled (Legacy mo
      +                          de)
  2185                           ;	Background Debugger Enable bit
  2186                           ;	DEBUG = 0x1, unprogrammed default
  2187   300006                     	org	3145734
  2188   300006  81                 	db	129
  2189                           
  2190                           ; Padding undefined space
  2191   300007                     	org	3145735
  2192   300007  FF                 	db	255
  2193                           
  2194                           ;Config register CONFIG5L @ 0x300008
  2195                           ;	Code Protection bit
  2196                           ;	CP0 = OFF, Block 0 (000800-003FFFh) not code-protected
  2197                           ;	Code Protection bit
  2198                           ;	CP1 = OFF, Block 1 (004000-007FFFh) not code-protected
  2199                           ;	Code Protection bit
  2200                           ;	CP2 = OFF, Block 2 (008000-00BFFFh) not code-protected
  2201                           ;	Code Protection bit
  2202                           ;	CP3 = OFF, Block 3 (00C000-00FFFFh) not code-protected
  2203   300008                     	org	3145736
  2204   300008  0F                 	db	15
  2205                           
  2206                           ;Config register CONFIG5H @ 0x300009
  2207                           ;	Boot Block Code Protection bit
  2208                           ;	CPB = OFF, Boot block (000000-0007FFh) not code-protected
  2209                           ;	Data EEPROM Code Protection bit
  2210                           ;	CPD = OFF, Data EEPROM not code-protected
  2211   300009                     	org	3145737
  2212   300009  C0                 	db	192
  2213                           
  2214                           ;Config register CONFIG6L @ 0x30000A
  2215                           ;	Write Protection bit
  2216                           ;	WRT0 = OFF, Block 0 (000800-003FFFh) not write-protected
  2217                           ;	Write Protection bit
  2218                           ;	WRT1 = OFF, Block 1 (004000-007FFFh) not write-protected
  2219                           ;	Write Protection bit
  2220                           ;	WRT2 = OFF, Block 2 (008000-00BFFFh) not write-protected
  2221                           ;	Write Protection bit
  2222                           ;	WRT3 = OFF, Block 3 (00C000-00FFFFh) not write-protected
  2223   30000A                     	org	3145738
  2224   30000A  0F                 	db	15
  2225                           
  2226                           ;Config register CONFIG6H @ 0x30000B
  2227                           ;	Configuration Register Write Protection bit
  2228                           ;	WRTC = OFF, Configuration registers (300000-3000FFh) not write-protected
  2229                           ;	Boot Block Write Protection bit
  2230                           ;	WRTB = OFF, Boot Block (000000-0007FFh) not write-protected
  2231                           ;	Data EEPROM Write Protection bit
  2232                           ;	WRTD = OFF, Data EEPROM not write-protected
  2233   30000B                     	org	3145739
  2234   30000B  E0                 	db	224
  2235                           
  2236                           ;Config register CONFIG7L @ 0x30000C
  2237                           ;	Table Read Protection bit
  2238                           ;	EBTR0 = OFF, Block 0 (000800-003FFFh) not protected from table reads executed in other
      +                           blocks
  2239                           ;	Table Read Protection bit
  2240                           ;	EBTR1 = OFF, Block 1 (004000-007FFFh) not protected from table reads executed in other
      +                           blocks
  2241                           ;	Table Read Protection bit
  2242                           ;	EBTR2 = OFF, Block 2 (008000-00BFFFh) not protected from table reads executed in other
      +                           blocks
  2243                           ;	Table Read Protection bit
  2244                           ;	EBTR3 = OFF, Block 3 (00C000-00FFFFh) not protected from table reads executed in other
      +                           blocks
  2245   30000C                     	org	3145740
  2246   30000C  0F                 	db	15
  2247                           
  2248                           ;Config register CONFIG7H @ 0x30000D
  2249                           ;	Boot Block Table Read Protection bit
  2250                           ;	EBTRB = OFF, Boot Block (000000-0007FFh) not protected from table reads executed in ot
      +                          her blocks
  2251   30000D                     	org	3145741
  2252   30000D  40                 	db	64
  2253                           tosu	equ	0xFFF
  2254                           tosh	equ	0xFFE
  2255                           tosl	equ	0xFFD
  2256                           stkptr	equ	0xFFC
  2257                           pclatu	equ	0xFFB
  2258                           pclath	equ	0xFFA
  2259                           pcl	equ	0xFF9
  2260                           tblptru	equ	0xFF8
  2261                           tblptrh	equ	0xFF7
  2262                           tblptrl	equ	0xFF6
  2263                           tablat	equ	0xFF5
  2264                           prodh	equ	0xFF4
  2265                           prodl	equ	0xFF3
  2266                           indf0	equ	0xFEF
  2267                           postinc0	equ	0xFEE
  2268                           postdec0	equ	0xFED
  2269                           preinc0	equ	0xFEC
  2270                           plusw0	equ	0xFEB
  2271                           fsr0h	equ	0xFEA
  2272                           fsr0l	equ	0xFE9
  2273                           wreg	equ	0xFE8
  2274                           indf1	equ	0xFE7
  2275                           postinc1	equ	0xFE6
  2276                           postdec1	equ	0xFE5
  2277                           preinc1	equ	0xFE4
  2278                           plusw1	equ	0xFE3
  2279                           fsr1h	equ	0xFE2
  2280                           fsr1l	equ	0xFE1
  2281                           bsr	equ	0xFE0
  2282                           indf2	equ	0xFDF
  2283                           postinc2	equ	0xFDE
  2284                           postdec2	equ	0xFDD
  2285                           preinc2	equ	0xFDC
  2286                           plusw2	equ	0xFDB
  2287                           fsr2h	equ	0xFDA
  2288                           fsr2l	equ	0xFD9
  2289                           status	equ	0xFD8

Data Sizes:
    Strings     3
    Constant    16
    Data        41
    BSS         70
    Persistent  0
    Stack       0

Auto Spaces:
    Space          Size  Autos    Used
    COMRAM          126      1     112
    BANK0           128      0       0
    BANK1           256      0       0
    BANK2           256      0       0
    BANK3           256      0       0
    BANK4           256      0       0
    BANK5           256      0       0
    BANK6           256      0       0
    BANK7           256      0       0
    BANK8           256      0       0
    BANK9           256      0       0
    BANK10          256      0       0
    BANK11          256      0       0
    BANK12          256      0       0
    BANK13          256      0       0
    BANK14          239      0       0
    BANK15          128      0       0

Pointer List with Targets:

    ADC_GetConversionResult@_adc$ADC_InterruptHandler	PTR FTN()void  size(2) Largest target is 0

    ADC_Init@_adc$ADC_InterruptHandler	PTR FTN()void  size(2) Largest target is 0

    ADC_InterruptHandler	PTR FTN()void  size(2) Largest target is 1
		 -> NULL(), 

    CCP1_InterruptHandler	PTR FTN()void  size(2) Largest target is 1
		 -> NULL(), 

    CCP2_InterruptHandler	PTR FTN()void  size(2) Largest target is 1
		 -> NULL(), 

    CCP_Capture_Mode_Config@_ccp_obj$CCP1_InterruptHandler	PTR FTN()void  size(2) Largest target is 0

    CCP_Capture_Mode_Config@_ccp_obj$CCP2_InterruptHandler	PTR FTN()void  size(2) Largest target is 0

    CCP_Compare_Mode_Config@_ccp_obj$CCP1_InterruptHandler	PTR FTN()void  size(2) Largest target is 0

    CCP_Compare_Mode_Config@_ccp_obj$CCP2_InterruptHandler	PTR FTN()void  size(2) Largest target is 0

    CCP_DeInit@_ccp_obj$CCP1_InterruptHandler	PTR FTN()void  size(2) Largest target is 0

    CCP_DeInit@_ccp_obj$CCP2_InterruptHandler	PTR FTN()void  size(2) Largest target is 0

    CCP_Init@_ccp_obj$CCP1_InterruptHandler	PTR FTN()void  size(2) Largest target is 0

    CCP_Init@_ccp_obj$CCP2_InterruptHandler	PTR FTN()void  size(2) Largest target is 0

    CCP_Interrupt_Config@_ccp_obj$CCP1_InterruptHandler	PTR FTN()void  size(2) Largest target is 0

    CCP_Interrupt_Config@_ccp_obj$CCP2_InterruptHandler	PTR FTN()void  size(2) Largest target is 0

    CCP_Mode_Timer_Select@_ccp_obj$CCP1_InterruptHandler	PTR FTN()void  size(2) Largest target is 0

    CCP_Mode_Timer_Select@_ccp_obj$CCP2_InterruptHandler	PTR FTN()void  size(2) Largest target is 0

    CCP_PWM_Mode_Config@_ccp_obj$CCP1_InterruptHandler	PTR FTN()void  size(2) Largest target is 0

    CCP_PWM_Mode_Config@_ccp_obj$CCP2_InterruptHandler	PTR FTN()void  size(2) Largest target is 0

    CCP_PWM_Set_Duty@_ccp_obj$CCP1_InterruptHandler	PTR FTN()void  size(2) Largest target is 0

    CCP_PWM_Set_Duty@_ccp_obj$CCP2_InterruptHandler	PTR FTN()void  size(2) Largest target is 0

    CCP_PWM_Start@_ccp_obj$CCP1_InterruptHandler	PTR FTN()void  size(2) Largest target is 0

    CCP_PWM_Start@_ccp_obj$CCP2_InterruptHandler	PTR FTN()void  size(2) Largest target is 0

    CCP_PWM_Stop@_ccp_obj$CCP1_InterruptHandler	PTR FTN()void  size(2) Largest target is 0

    CCP_PWM_Stop@_ccp_obj$CCP2_InterruptHandler	PTR FTN()void  size(2) Largest target is 0

    configure_voltage_reference@_adc$ADC_InterruptHandler	PTR FTN()void  size(2) Largest target is 0

    EUSART_ASYNC_RX_Init@_eusart$EUSART_FramingErrorHandler	PTR FTN()void  size(2) Largest target is 0

    EUSART_ASYNC_RX_Init@_eusart$EUSART_OverrunErrorHandler	PTR FTN()void  size(2) Largest target is 0

    EUSART_ASYNC_RX_Init@_eusart$EUSART_RxDefaultInterruptHandler	PTR FTN()void  size(2) Largest target is 0

    EUSART_ASYNC_RX_Init@_eusart$EUSART_TxDefaultInterruptHandler	PTR FTN()void  size(2) Largest target is 0

    EUSART_ASYNC_TX_Init@_eusart$EUSART_FramingErrorHandler	PTR FTN()void  size(2) Largest target is 0

    EUSART_ASYNC_TX_Init@_eusart$EUSART_OverrunErrorHandler	PTR FTN()void  size(2) Largest target is 0

    EUSART_ASYNC_TX_Init@_eusart$EUSART_RxDefaultInterruptHandler	PTR FTN()void  size(2) Largest target is 0

    EUSART_ASYNC_TX_Init@_eusart$EUSART_TxDefaultInterruptHandler	PTR FTN()void  size(2) Largest target is 0

    EUSART_Baud_Rate_Calculation@_eusart$EUSART_FramingErrorHandler	PTR FTN()void  size(2) Largest target is 0

    EUSART_Baud_Rate_Calculation@_eusart$EUSART_OverrunErrorHandler	PTR FTN()void  size(2) Largest target is 0

    EUSART_Baud_Rate_Calculation@_eusart$EUSART_RxDefaultInterruptHandler	PTR FTN()void  size(2) Largest target is 0

    EUSART_Baud_Rate_Calculation@_eusart$EUSART_TxDefaultInterruptHandler	PTR FTN()void  size(2) Largest target is 0

    EUSART_FramingErrorHandler	PTR FTN()void  size(2) Largest target is 1
		 -> NULL(), 

    EUSART_OverrunErrorHandler	PTR FTN()void  size(2) Largest target is 1
		 -> NULL(), 

    EUSART_RxInterruptHandler	PTR FTN()void  size(2) Largest target is 1
		 -> NULL(), 

    EUSART_TxInterruptHandler	PTR FTN()void  size(2) Largest target is 1
		 -> NULL(), 

    f$.$buffer	PTR unsigned char  size(2) Largest target is 0

    f$.$source	PTR const unsigned char  size(2) Largest target is 0

    I2C_DefaultInterruptHandle	PTR FTN()void  size(2) Largest target is 1
		 -> NULL(), 

    I2C_Master_Mode_Clock_Configurations@i2c_obj$I2C_DefaultInterruptHandler	PTR FTN()void  size(2) Largest target is 0

    I2C_Master_Mode_Clock_Configurations@i2c_obj$I2C_Report_Receive_Overflow	PTR FTN()void  size(2) Largest target is 0

    I2C_Master_Mode_Clock_Configurations@i2c_obj$I2C_Report_Write_Collision	PTR FTN()void  size(2) Largest target is 0

    I2C_Report_Receive_Overflow_InterruptHandle	PTR FTN()void  size(2) Largest target is 1
		 -> NULL(), 

    I2C_Report_Write_Collision_InterruptHandler	PTR FTN()void  size(2) Largest target is 1
		 -> NULL(), 

    I2C_Slave_Mode_Configurations@i2c_obj$I2C_DefaultInterruptHandler	PTR FTN()void  size(2) Largest target is 0

    I2C_Slave_Mode_Configurations@i2c_obj$I2C_Report_Receive_Overflow	PTR FTN()void  size(2) Largest target is 0

    I2C_Slave_Mode_Configurations@i2c_obj$I2C_Report_Write_Collision	PTR FTN()void  size(2) Largest target is 0

    INT0_InterruptHandler	PTR FTN()void  size(2) Largest target is 1
		 -> NULL(), 

    INT1_InterruptHandler	PTR FTN()void  size(2) Largest target is 1
		 -> NULL(), 

    INT2_InterruptHandler	PTR FTN()void  size(2) Largest target is 1
		 -> NULL(), 

    Interrupt_INTx_Clear_Flag@int_obj$EXT_InterruptHandler	PTR FTN()void  size(2) Largest target is 0

    Interrupt_INTx_Disable@int_obj$EXT_InterruptHandler	PTR FTN()void  size(2) Largest target is 0

    Interrupt_INTx_Edge_Init@int_obj$EXT_InterruptHandler	PTR FTN()void  size(2) Largest target is 0

    Interrupt_INTx_Enable@int_obj$EXT_InterruptHandler	PTR FTN()void  size(2) Largest target is 0

    Interrupt_INTx_Pin_Init@int_obj$EXT_InterruptHandler	PTR FTN()void  size(2) Largest target is 0

    Interrupt_INTx_SetInterruptHandler@int_obj$EXT_InterruptHandler	PTR FTN()void  size(2) Largest target is 0

    Interrupt_RBx_Init@int_obj$EXT_InterruptHandler_HIGH	PTR FTN()void  size(2) Largest target is 0

    Interrupt_RBx_Init@int_obj$EXT_InterruptHandler_LOW	PTR FTN()void  size(2) Largest target is 0

    lat_registers	PTR volatile unsigned char [5] size(2) Largest target is 1
		 -> LATA(BITBIGSFRll[1]), LATB(BITBIGSFRlh[1]), LATC(BITBIGSFRlh[1]), LATD(BITBIGSFRlh[1]), 
		 -> LATE(BITBIGSFRlh[1]), 

    MSSP_I2C_Init@i2c_obj$I2C_DefaultInterruptHandler	PTR FTN()void  size(2) Largest target is 0

    MSSP_I2C_Init@i2c_obj$I2C_Report_Receive_Overflow	PTR FTN()void  size(2) Largest target is 0

    MSSP_I2C_Init@i2c_obj$I2C_Report_Write_Collision	PTR FTN()void  size(2) Largest target is 0

    MSSP_I2C_Interrupt_Configurations@i2c_obj$I2C_DefaultInterruptHandler	PTR FTN()void  size(2) Largest target is 0

    MSSP_I2C_Interrupt_Configurations@i2c_obj$I2C_Report_Receive_Overflow	PTR FTN()void  size(2) Largest target is 0

    MSSP_I2C_Interrupt_Configurations@i2c_obj$I2C_Report_Write_Collision	PTR FTN()void  size(2) Largest target is 0

    port_registers	PTR volatile unsigned char [5] size(2) Largest target is 1
		 -> PORTA(BITBIGSFRll[1]), PORTB(BITBIGSFRll[1]), PORTC(BITBIGSFRll[1]), PORTD(BITBIGSFRll[1]), 
		 -> PORTE(BITBIGSFRll[1]), 

    RB4_InterruptHandler_HIGH	PTR FTN()void  size(2) Largest target is 1
		 -> NULL(), 

    RB4_InterruptHandler_LOW	PTR FTN()void  size(2) Largest target is 1
		 -> NULL(), 

    RB5_InterruptHandler_HIGH	PTR FTN()void  size(2) Largest target is 1
		 -> NULL(), 

    RB5_InterruptHandler_LOW	PTR FTN()void  size(2) Largest target is 1
		 -> NULL(), 

    RB6_InterruptHandler_HIGH	PTR FTN()void  size(2) Largest target is 1
		 -> NULL(), 

    RB6_InterruptHandler_LOW	PTR FTN()void  size(2) Largest target is 1
		 -> NULL(), 

    RB7_InterruptHandler_HIGH	PTR FTN()void  size(2) Largest target is 1
		 -> NULL(), 

    RB7_InterruptHandler_LOW	PTR FTN()void  size(2) Largest target is 1
		 -> NULL(), 

    S1124$CCP1_InterruptHandler	PTR FTN()void  size(2) Largest target is 0

    S1124$CCP2_InterruptHandler	PTR FTN()void  size(2) Largest target is 0

    S1835$I2C_DefaultInterruptHandler	PTR FTN()void  size(2) Largest target is 0

    S1835$I2C_Report_Receive_Overflow	PTR FTN()void  size(2) Largest target is 0

    S1835$I2C_Report_Write_Collision	PTR FTN()void  size(2) Largest target is 0

    S2356$EXT_InterruptHandler	PTR FTN()void  size(2) Largest target is 0

    S2472$EXT_InterruptHandler_HIGH	PTR FTN()void  size(2) Largest target is 0

    S2472$EXT_InterruptHandler_LOW	PTR FTN()void  size(2) Largest target is 0

    S3230$TMR0_InterruptHandler	PTR FTN()void  size(2) Largest target is 0

    S3395$TMR1_InterruptHandler	PTR FTN()void  size(2) Largest target is 0

    S3585$TMR2_InterruptHandler	PTR FTN()void  size(2) Largest target is 0

    S3714$TMR3_InterruptHandler	PTR FTN()void  size(2) Largest target is 0

    S3908$EUSART_FramingErrorHandler	PTR FTN()void  size(2) Largest target is 0

    S3908$EUSART_OverrunErrorHandler	PTR FTN()void  size(2) Largest target is 0

    S3908$EUSART_RxDefaultInterruptHandler	PTR FTN()void  size(2) Largest target is 0

    S3908$EUSART_TxDefaultInterruptHandler	PTR FTN()void  size(2) Largest target is 0

    S4774$buffer	PTR unsigned char  size(2) Largest target is 0

    S4774$source	PTR const unsigned char  size(2) Largest target is 0

    S706$ADC_InterruptHandler	PTR FTN()void  size(2) Largest target is 0

    select_result_format@_adc$ADC_InterruptHandler	PTR FTN()void  size(2) Largest target is 0

    sp__memset	PTR void  size(2) Largest target is 0

    Timer0_Init@_timer$TMR0_InterruptHandler	PTR FTN()void  size(2) Largest target is 0

    Timer0_Mode_Select@_timer$TMR0_InterruptHandler	PTR FTN()void  size(2) Largest target is 0

    Timer0_Prescaler_Config@_timer$TMR0_InterruptHandler	PTR FTN()void  size(2) Largest target is 0

    Timer0_Register_Size_Config@_timer$TMR0_InterruptHandler	PTR FTN()void  size(2) Largest target is 0

    Timer1_Init@_timer$TMR1_InterruptHandler	PTR FTN()void  size(2) Largest target is 0

    Timer1_Mode_Select@_timer$TMR1_InterruptHandler	PTR FTN()void  size(2) Largest target is 0

    Timer2_Init@_timer$TMR2_InterruptHandler	PTR FTN()void  size(2) Largest target is 0

    Timer3_Init@_timer$TMR3_InterruptHandler	PTR FTN()void  size(2) Largest target is 0

    Timer3_Mode_Select@_timer$TMR3_InterruptHandler	PTR FTN()void  size(2) Largest target is 0

    TMR0_InterruptHandler	PTR FTN()void  size(2) Largest target is 1
		 -> NULL(), 

    TMR1_InterruptHandler	PTR FTN()volatile void  size(2) Largest target is 1
		 -> NULL(), 

    TMR2_InterruptHandler	PTR FTN()void  size(2) Largest target is 1
		 -> NULL(), 

    TMR3_InterruptHandler	PTR FTN()void  size(2) Largest target is 1
		 -> NULL(), 

    tris_registers	PTR volatile unsigned char [5] size(2) Largest target is 1
		 -> TRISA(BITBIGSFRll[1]), TRISB(ABS[1]), TRISC(ABS[1]), TRISD(ABS[1]), 
		 -> TRISE(ABS[1]), 

    vfprintf$0	PTR struct _IO_FILE size(1) Largest target is 12
		 -> sprintf@f(COMRAM[12]), 

    vfprintf$1	PTR const unsigned char  size(1) Largest target is 3
		 -> STR_1(CODE[3]), STR_2(CODE[3]), STR_3(CODE[3]), 

    vfprintf$2	PTR PTR void  size(1) Largest target is 1
		 -> sprintf@ap(COMRAM[1]), 


Critical Paths under _main in COMRAM

    None.

Critical Paths under _InterruptManager in COMRAM

    _InterruptManager->_RB4_ISR
    _InterruptManager->_RB5_ISR
    _InterruptManager->_RB6_ISR
    _InterruptManager->_RB7_ISR

Critical Paths under _main in BANK0

    None.

Critical Paths under _InterruptManager in BANK0

    None.

Critical Paths under _main in BANK1

    None.

Critical Paths under _InterruptManager in BANK1

    None.

Critical Paths under _main in BANK2

    None.

Critical Paths under _InterruptManager in BANK2

    None.

Critical Paths under _main in BANK3

    None.

Critical Paths under _InterruptManager in BANK3

    None.

Critical Paths under _main in BANK4

    None.

Critical Paths under _InterruptManager in BANK4

    None.

Critical Paths under _main in BANK5

    None.

Critical Paths under _InterruptManager in BANK5

    None.

Critical Paths under _main in BANK6

    None.

Critical Paths under _InterruptManager in BANK6

    None.

Critical Paths under _main in BANK7

    None.

Critical Paths under _InterruptManager in BANK7

    None.

Critical Paths under _main in BANK8

    None.

Critical Paths under _InterruptManager in BANK8

    None.

Critical Paths under _main in BANK9

    None.

Critical Paths under _InterruptManager in BANK9

    None.

Critical Paths under _main in BANK10

    None.

Critical Paths under _InterruptManager in BANK10

    None.

Critical Paths under _main in BANK11

    None.

Critical Paths under _InterruptManager in BANK11

    None.

Critical Paths under _main in BANK12

    None.

Critical Paths under _InterruptManager in BANK12

    None.

Critical Paths under _main in BANK13

    None.

Critical Paths under _InterruptManager in BANK13

    None.

Critical Paths under _main in BANK14

    None.

Critical Paths under _InterruptManager in BANK14

    None.

Critical Paths under _main in BANK15

    None.

Critical Paths under _InterruptManager in BANK15

    None.

Call Graph Tables:

 ---------------------------------------------------------------------------------
 (Depth) Function   	        Calls       Base Space   Used Autos Params    Refs
 ---------------------------------------------------------------------------------
 (0) _main                                                 1     1      0       0
              _application_intialize
 ---------------------------------------------------------------------------------
 (1) _application_intialize                                1     1      0       0
                _ecu_layer_intialize
 ---------------------------------------------------------------------------------
 (2) _ecu_layer_intialize                                  1     1      0       0
 ---------------------------------------------------------------------------------
 Estimated maximum stack depth 2
 ---------------------------------------------------------------------------------
 (Depth) Function   	        Calls       Base Space   Used Autos Params    Refs
 ---------------------------------------------------------------------------------
 (3) _InterruptManager                                     0     0      0     120
                            _ADC_ISR
                           _CCP1_ISR
                           _CCP2_ISR
                      _EUSART_RX_ISR
                      _EUSART_TX_ISR
                           _INT0_ISR
                           _INT1_ISR
                           _INT2_ISR
                    _MSSP_I2C_BC_ISR
                       _MSSP_I2C_ISR
                       _MSSP_SPI_ISR
                            _RB4_ISR
                            _RB5_ISR
                            _RB6_ISR
                            _RB7_ISR
                           _TMR0_ISR
                           _TMR1_ISR
                           _TMR2_ISR
                           _TMR3_ISR
 ---------------------------------------------------------------------------------
 (4) _TMR3_ISR                                             0     0      0       0
 ---------------------------------------------------------------------------------
 (4) _TMR2_ISR                                             0     0      0       0
 ---------------------------------------------------------------------------------
 (4) _TMR1_ISR                                             0     0      0       0
 ---------------------------------------------------------------------------------
 (4) _TMR0_ISR                                             0     0      0       0
 ---------------------------------------------------------------------------------
 (4) _RB7_ISR                                              1     1      0      30
                                              0 COMRAM     1     1      0
 ---------------------------------------------------------------------------------
 (4) _RB6_ISR                                              1     1      0      30
                                              0 COMRAM     1     1      0
 ---------------------------------------------------------------------------------
 (4) _RB5_ISR                                              1     1      0      30
                                              0 COMRAM     1     1      0
 ---------------------------------------------------------------------------------
 (4) _RB4_ISR                                              1     1      0      30
                                              0 COMRAM     1     1      0
 ---------------------------------------------------------------------------------
 (4) _MSSP_SPI_ISR                                         0     0      0       0
 ---------------------------------------------------------------------------------
 (4) _MSSP_I2C_ISR                                         0     0      0       0
 ---------------------------------------------------------------------------------
 (4) _MSSP_I2C_BC_ISR                                      0     0      0       0
 ---------------------------------------------------------------------------------
 (4) _INT2_ISR                                             0     0      0       0
 ---------------------------------------------------------------------------------
 (4) _INT1_ISR                                             0     0      0       0
 ---------------------------------------------------------------------------------
 (4) _INT0_ISR                                             0     0      0       0
 ---------------------------------------------------------------------------------
 (4) _EUSART_TX_ISR                                        0     0      0       0
 ---------------------------------------------------------------------------------
 (4) _EUSART_RX_ISR                                        0     0      0       0
 ---------------------------------------------------------------------------------
 (4) _CCP2_ISR                                             0     0      0       0
 ---------------------------------------------------------------------------------
 (4) _CCP1_ISR                                             0     0      0       0
 ---------------------------------------------------------------------------------
 (4) _ADC_ISR                                              0     0      0       0
 ---------------------------------------------------------------------------------
 Estimated maximum stack depth 4
 ---------------------------------------------------------------------------------

 Call Graph Graphs:

 _main (ROOT)
   _application_intialize
     _ecu_layer_intialize

 _InterruptManager (ROOT)
   _ADC_ISR
   _CCP1_ISR
   _CCP2_ISR
   _EUSART_RX_ISR
   _EUSART_TX_ISR
   _INT0_ISR
   _INT1_ISR
   _INT2_ISR
   _MSSP_I2C_BC_ISR
   _MSSP_I2C_ISR
   _MSSP_SPI_ISR
   _RB4_ISR
   _RB5_ISR
   _RB6_ISR
   _RB7_ISR
   _TMR0_ISR
   _TMR1_ISR
   _TMR2_ISR
   _TMR3_ISR

 Address spaces:
Name               Size   Autos  Total    Cost      Usage
BIGRAM             EEE      0       0      51        0.0%
EEDATA             400      0       0       0        0.0%
BITBANK13          100      0       0      29        0.0%
BANK13             100      0       0      30        0.0%
BITBANK12          100      0       0      27        0.0%
BANK12             100      0       0      28        0.0%
BITBANK11          100      0       0      25        0.0%
BANK11             100      0       0      26        0.0%
BITBANK10          100      0       0      23        0.0%
BANK10             100      0       0      24        0.0%
BITBANK9           100      0       0      21        0.0%
BANK9              100      0       0      22        0.0%
BITBANK8           100      0       0      19        0.0%
BANK8              100      0       0      20        0.0%
BITBANK7           100      0       0      17        0.0%
BANK7              100      0       0      18        0.0%
BITBANK6           100      0       0      15        0.0%
BANK6              100      0       0      16        0.0%
BITBANK5           100      0       0      13        0.0%
BANK5              100      0       0      14        0.0%
BITBANK4           100      0       0      11        0.0%
BANK4              100      0       0      12        0.0%
BITBANK3           100      0       0       9        0.0%
BANK3              100      0       0      10        0.0%
BITBANK2           100      0       0       7        0.0%
BANK2              100      0       0       8        0.0%
BITBANK1           100      0       0       5        0.0%
BANK1              100      0       0       6        0.0%
BITBANK14           EF      0       0      31        0.0%
BANK14              EF      0       0      32        0.0%
BITBANK15           80      0       0      33        0.0%
BANK15              80      0       0      34        0.0%
BITBANK0            80      0       0       3        0.0%
BANK0               80      0       0       4        0.0%
BIGRAM_1            80      0       0      50        0.0%
BITCOMRAM           7E      0       0       0        0.0%
COMRAM              7E      1      70       1       88.9%
BITBIGSFR_5h         9      0       0      35        0.0%
BITBIGSFRhh          5      0       0      46        0.0%
BITBIGSFR_1llll      4      0       0      43        0.0%
BITBIGSFR_1hhhh      4      0       0      39        0.0%
BITBIGSFRlh          4      0       0      47        0.0%
BITBIGSFR_1llll      4      0       0      44        0.0%
BITBIGSFRll          4      0       0      48        0.0%
BITBIGSFR_2h         3      0       0      38        0.0%
BITBIGSFR_4          3      0       0      36        0.0%
BITBIGSFR_3          3      0       0      37        0.0%
BITBIGSFR_1llll      1      0       0      42        0.0%
BITBIGSFR_1lllh      1      0       0      41        0.0%
BITBIGSFR_1llh       1      0       0      40        0.0%
BITBIGSFR_1llll      1      0       0      45        0.0%
BIGSFR_5             0      0       0     200        0.0%
BIGSFR_4             0      0       0     200        0.0%
BIGSFR_3             0      0       0     200        0.0%
BIGSFR_2             0      0       0     200        0.0%
BIGSFR_1             0      0       0     200        0.0%
BIGSFR               0      0       0     200        0.0%
BITSFR_5             0      0       0     200        0.0%
SFR_5                0      0       0     200        0.0%
BITSFR_4             0      0       0     200        0.0%
SFR_4                0      0       0     200        0.0%
BITSFR_3             0      0       0     200        0.0%
SFR_3                0      0       0     200        0.0%
BITSFR_2             0      0       0     200        0.0%
SFR_2                0      0       0     200        0.0%
BITSFR_1             0      0       0     200        0.0%
SFR_1                0      0       0     200        0.0%
BITSFR               0      0       0     200        0.0%
SFR                  0      0       0     200        0.0%
STACK                0      0       0       2        0.0%
NULL                 0      0       0       0        0.0%
ABS                  0      0      70      49        0.0%
DATA                 0      0      70      52        0.0%
CODE                 0      0       0       0        0.0%


Microchip Technology PIC18 Macro Assembler V2.46 build 20240104201356 
Symbol Table                                                                                   Tue Aug 13 02:59:46 2024

                               ??_InterruptManager 0071                                        _SSPSTATbits 0FC7  
                                              l347 1546                                                _PR2 0FCB  
                        _RB5_InterruptHandler_HIGH 0027                                    __end_of_ADC_ISR 1546  
                              led_initialize@F3026 0046                              relay_initialize@F3020 0042  
                                              wreg 0FE8                                    __end_of_RB4_ISR 14E4  
                                  __end_of_RB5_ISR 14CA                                    __end_of_RB6_ISR 14B0  
                                  __end_of_RB7_ISR 1496                                               l1701 14E8  
                                             l1702 14E8                                               l5010 14E4  
                                             l1707 1520                                               l5012 14E4  
                                             l2466 1546                                               l2850 151C  
                                             l2852 151C                                               STR_1 1011  
                                             _LATA 0F89                                               _LATB 0F8A  
                                             _LATC 0F8B                                               _LATD 0F8C  
                                             _LATE 0F8D                                               _TMR2 0FCC  
                          ??_application_intialize 0071                           _RB4_InterruptHandler_LOW 0029  
                                             _main 14E4                                   __end_of_CCP1_ISR 1542  
                                 __end_of_CCP2_ISR 153E                           _RB7_InterruptHandler_LOW 001D  
                                             fsr1l 0FE1                                               btemp 0071  
                                             start 000E                                       ___param_bank 0000  
                                 __end_of_INT0_ISR 1536                                   __end_of_INT1_ISR 1532  
                                 __end_of_INT2_ISR 152E                                      _EUSART_RX_ISR 154A  
                                    _EUSART_TX_ISR 1536                                              ?_main 0070  
                                            _EEADR 0FA9                                              i2l473 1544  
                                            i2l574 153C                                              i2l569 1540  
                                            i2l923 1528                                              i2l919 1524  
                                            i2l992 1530                                              i2l987 1534  
                                            i2l997 152C                                              _RCREG 0FAE  
                              relay_turn_off@F3030 0040                                              _TMR0H 0FD7  
                                            _TMR1H 0FCF                                              _TMR0L 0FD6  
                                            _TMR1L 0FCE                                              _TMR3H 0FB3  
                                            _TMR3L 0FB2                                              _SPBRG 0FAF  
                                            _PORTA 0F80                                              _PORTB 0F81  
                                            _PORTC 0F82                                              _PORTD 0F83  
                                            _PORTE 0F84                                              _TRISA 0F92  
                                            _TRISB 0F93                                              _TRISC 0F94  
                                            _TRISD 0F95                                              _TRISE 0F96  
                                            _TXREG 0FAD                                   __end_of_TMR0_ISR 1514  
                                 __end_of_TMR1_ISR 1508                                   __end_of_TMR2_ISR 151C  
                                 __end_of_TMR3_ISR 14FC                                              tablat 0FF5  
                                            ttemp5 0072                                              ttemp6 0075  
                                            ttemp7 0079                                              status 0FD8  
                                            wtemp8 0072                                    __initialization 141C  
                                     __end_of_main 14F0                                          ??_ADC_ISR 0070  
                                   ?_EUSART_RX_ISR 0070                                     ?_EUSART_TX_ISR 0070  
                                    _lat_registers 0051                                             ??_main 0071  
                                    __activetblptr 0003                              _TMR3_InterruptHandler 0011  
                                 led_turn_on@F3031 0045                                          ??_RB4_ISR 0070  
                                        ??_RB5_ISR 0070                                          ??_RB6_ISR 0070  
                                        ??_RB7_ISR 0070                         _EUSART_OverrunErrorHandler 0007  
                                           _ADRESH 0FC4                                             _EEADRH 0FAA  
                                           _ADRESL 0FC3                                             _EEDATA 0FA8  
                                           _CCPR1L 0FBE                                             _CCPR2L 0FBB  
                                           _EECON2 0FA7                                             i2l1030 14AE  
                                           i2l1008 14E2                                             i2l1041 1494  
                                           i2l1019 14C8                                             i2l1220 1078  
                                           i2l1230 11CC                                             i2l1222 10BC  
                                           i2l1240 12D8                                             i2l1232 1210  
                                           i2l1224 1100                                             i2l1216 1038  
                                           i2l1321 1548                                             i2l1250 1378  
                                           i2l1242 12F8                                             i2l1234 1254  
                                           i2l1226 1144                                             i2l1218 1058  
                                           i2l1252 1398                                             i2l1244 1318  
                                           i2l1236 1298                                             i2l1228 1188  
                                           i2l1261 1418                                             i2l1254 13B8  
                                           i2l1246 1338                                             i2l1238 12B8  
                                           i2l1256 13D8                                             i2l1248 1358  
                                           i2l1258 13F8                                             i2l1507 151A  
                                           i2l1551 14FA                                             i2l1456 1506  
                                           i2l1387 1512                                             i2l2700 14CE  
                                           i2l2720 14C8                                             i2l2712 14B2  
                                           i2l2800 150E                                             i2l4400 1206  
                                           i2l2706 14E2                                             i2l2714 14B4  
                                           i2l4410 124A                                             i2l4402 120A  
                                           i2l4330 1018                                             i2l1683 1538  
                                           i2l2644 1542                                             i2l1692 154A  
                                           i2l2740 147E                                             i2l2804 14FC  
                                           i2l2812 1514                                             i2l2820 14F6  
                                           i2l4420 128E                                             i2l4412 124E  
                                           i2l4404 121E                                             i2l4340 1066  
                                           i2l4332 1026                                             i2l2654 153A  
                                           i2l2830 154A                                             i2l2734 14AE  
                                           i2l2726 1498                                             i2l2742 1480  
                                           i2l2806 14FE                                             i2l4430 12D4  
                                           i2l4422 1292                                             i2l4414 1262  
                                           i2l4406 122C                                             i2l4350 10B2  
                                           i2l4342 1074                                             i2l4334 1034  
                                           i2l2648 153E                                             i2l2824 1536  
                                           i2l2680 1532                                             i2l2672 1522  
                                           i2l2728 149A                                             i2l2808 1502  
                                           i2l2816 14F0                                             i2l4440 1326  
                                           i2l4432 12E6                                             i2l4424 12A6  
                                           i2l4416 1270                                             i2l4408 123A  
                                           i2l4360 10F6                                             i2l4352 10B6  
                                           i2l4344 1086                                             i2l4336 1046  
                                           i2l2818 14F2                                             i2l4450 1374  
                                           i2l4442 1334                                             i2l4434 12F4  
                                           i2l4426 12B4                                             i2l4418 127E  
                                           i2l4370 113A                                             i2l4362 10FA  
                                           i2l4354 10CA                                             i2l4346 1094  
                                           i2l4338 1054                                             i2l2692 152A  
                                           i2l2676 1526                                             i2l2748 1494  
                                           i2l4460 13C6                                             i2l4452 1386  
                                           i2l4444 1346                                             i2l4436 1306  
                                           i2l4428 12C6                                             i2l4380 117E  
                                           i2l4372 113E                                             i2l4364 110E  
                                           i2l4356 10D8                                             i2l4348 10A2  
                                           i2l2686 152E                                             i2l4470 1414  
                                           i2l4462 13D4                                             i2l4454 1394  
                                           i2l4446 1354                                             i2l4438 1314  
                                           i2l4390 11C2                                             i2l4382 1182  
                                           i2l4374 1152                                             i2l4366 111C  
                                           i2l4358 10E6                                             i2l4464 13E6  
                                           i2l4456 13A6                                             i2l4448 1366  
                                           i2l4392 11C6                                             i2l4384 1196  
                                           i2l4376 1160                                             i2l4368 112A  
                                           i2l2698 14CC                                             i2l4466 13F4  
                                           i2l4458 13B4                                             i2l4394 11DA  
                                           i2l4386 11A4                                             i2l4378 116E  
                                           i2l2796 1508                                             i2l4468 1406  
                                           i2l4396 11E8                                             i2l4388 11B2  
                                           i2l2798 150A                                             i2l4398 11F6  
                                           _SPBRGH 0FB0                                             _SSPADD 0FC8  
                                           _SSPBUF 0FC9                                             clear_0 1442  
                                           isa$std 0001        _I2C_Report_Receive_Overflow_InterruptHandle 0033  
                                        ?_CCP1_ISR 0070                                       __pdataCOMRAM 0047  
                                        ?_CCP2_ISR 0070                                       __mediumconst 0000  
                                           tblptrh 0FF7                                             tblptrl 0FF6  
                                           tblptru 0FF8                                         __accesstop 0080  
                          __end_of__initialization 1448                                          ?_INT0_ISR 0070  
                                        ?_INT1_ISR 0070                                          ?_INT2_ISR 0070  
                                    ___rparam_used 0001                                  RB5_ISR@RB5_Source 0070  
                                   __pcstackCOMRAM 0070                         _I2C_DefaultInterruptHandle 0035  
                                        ?_TMR0_ISR 0070                                    ??_EUSART_RX_ISR 0070  
                                        ?_TMR1_ISR 0070                                          ?_TMR2_ISR 0070  
                                        ?_TMR3_ISR 0070                                    ??_EUSART_TX_ISR 0070  
                                       ??_CCP1_ISR 0070                                         ??_CCP2_ISR 0070  
                            _INT0_InterruptHandler 0031                                         ??_INT0_ISR 0070  
                                       ??_INT1_ISR 0070                                         ??_INT2_ISR 0070  
                    __end_of_application_intialize 1522                                         ??_TMR0_ISR 0070  
                                       ??_TMR1_ISR 0070                                         ??_TMR2_ISR 0070  
                                       ??_TMR3_ISR 0070                                  led_turn_off@F3036 0044  
                                          _ADC_ISR 1542                                  RB7_ISR@RB7_Source 0070  
                                          _RB4_ISR 14CA                                            _RB5_ISR 14B0  
                                          _RB6_ISR 1496                                            _RB7_ISR 147C  
                        _RB6_InterruptHandler_HIGH 0023                                      ?_MSSP_I2C_ISR 0070  
                             led_turn_toggle@F3041 0043                                            i2u32_40 14DE  
                                          i2u32_41 14DA                                            i2u33_40 14C4  
                                          i2u33_41 14C0                                            i2u34_40 14AA  
                                          i2u34_41 14A6                                            i2u35_40 1490  
                                          i2u35_41 148C                                         _btn_values 1001  
                                   _tris_registers 005B                           _RB6_InterruptHandler_LOW 0021  
                                    ?_MSSP_SPI_ISR 0070                                  ??_MSSP_I2C_BC_ISR 0070  
                             _ADC_InterruptHandler 003D                                            __Hparam 0000  
                                          __Lparam 0000                                _ecu_layer_intialize 1546  
                                     __psmallconst 1000                                            __pcinit 141C  
                                          __ramtop 1000                                            __ptext0 14E4  
                                          __ptext1 151C                                            __ptext2 1546  
                                          __ptext4 14F0                                            __ptext5 1514  
                                          __ptext6 14FC                                            __ptext7 1508  
                                          __ptext8 147C                                            __ptext9 1496  
                                        _T0CONbits 0FD5                                          _T1CONbits 0FCD  
                                   ??_MSSP_I2C_ISR 0070                                          _T2CONbits 0FCA  
                                        _T3CONbits 0FB1                               ?_ecu_layer_intialize 0070  
                                   __pintcode_body 1016                               end_of_initialization 1448  
                                          int_func 1016                                     ??_MSSP_SPI_ISR 0070  
                                        _RCSTAbits 0FAB                                            postdec1 0FE5  
                                          postinc0 0FEE                              _INT1_InterruptHandler 002F  
                                        _PORTBbits 0F81                                   _InterruptManager 0008  
                            ??_ecu_layer_intialize 0071                                          _TRISCbits 0F94  
                                      _CCP1CONbits 0FBD                                        _CCP2CONbits 0FBA  
                                        _TXSTAbits 0FAC                                 relay_turn_on@F3025 0041  
                    convert_uint16_to_string@F3176 0001                                        _BAUDCONbits 0FB8  
                                    __pidataCOMRAM 1452                                     _timer0_preload 0019  
                                   _timer1_preload 0015                                     _timer2_preload 003F  
                              start_initialization 141C                                     _timer3_preload 000F  
MSSP_SPI_Msster_Mode_GPIO_PIN_Configurations@F3070 006A  MSSP_SPI_Msster_Mode_GPIO_PIN_Configurations@F3072 0069  
 MSSP_SPI_Slave_Mode_GPIO_PIN_Configurations@F3081 0066   MSSP_SPI_Slave_Mode_GPIO_PIN_Configurations@F3083 0065  
MSSP_SPI_Msster_Mode_GPIO_PIN_Configurations@F3068 006B   MSSP_SPI_Slave_Mode_GPIO_PIN_Configurations@F3077 0068  
 MSSP_SPI_Slave_Mode_GPIO_PIN_Configurations@F3079 0067                          _EUSART_RxInterruptHandler 000B  
                             __end_of_MSSP_I2C_ISR 1526                         _EUSART_FramingErrorHandler 0009  
                                         ?_ADC_ISR 0070                              __end_of_EUSART_RX_ISR 154C  
                            __end_of_EUSART_TX_ISR 153A                               __end_of_MSSP_SPI_ISR 154A  
                                         ?_RB4_ISR 0070                                           ?_RB5_ISR 0070  
                                         ?_RB6_ISR 0070                                           ?_RB7_ISR 0070  
                                      __pbssCOMRAM 0001        _I2C_Report_Write_Collision_InterruptHandler 0037  
                                  _MSSP_I2C_BC_ISR 1526                              _INT2_InterruptHandler 002D  
                            _TMR0_InterruptHandler 001B                              _application_intialize 151C  
                                        __pintcode 0008                                        __smallconst 1000  
                        _RB4_InterruptHandler_HIGH 002B                                           _CCP1_ISR 153E  
                                         _CCP2_ISR 153A                          _RB7_InterruptHandler_HIGH 001F  
                         _RB5_InterruptHandler_LOW 0025                                           _INT0_ISR 1532  
                                         _INT1_ISR 152E                                           _INT2_ISR 152A  
                                         _RB4_Flag 006F                                           _RB5_Flag 006E  
                                         _RB6_Flag 006D                                           _RB7_Flag 006C  
                                RB4_ISR@RB4_Source 0070                           __end_of_InterruptManager 141C  
                                         _PIE1bits 0F9D                                           _PIE2bits 0FA0  
                                         i2u220_40 1094                                           i2u220_41 1090  
                                         i2u221_40 10A2                                           i2u213_40 1026  
                                         i2u221_41 109E                                           i2u213_41 1022  
                                         i2u230_40 113A                                           i2u222_40 10B2  
                                         i2u214_40 1034                                           i2u230_41 1136  
                                         i2u222_41 10AE                                           i2u214_41 1030  
                                         i2u231_40 1152                                           i2u223_40 10CA  
                                         i2u215_40 1046                                           i2u231_41 114E  
                                         i2u223_41 10C6                                           i2u215_41 1042  
                                         i2u240_40 11E8                                           i2u232_40 1160  
                                         i2u224_40 10D8                                           i2u216_40 1054  
                                         i2u240_41 11E4                                           i2u232_41 115C  
                                         i2u224_41 10D4                                           i2u216_41 1050  
                                         i2u241_40 11F6                                           i2u233_40 116E  
                                         i2u225_40 10E6                                           i2u217_40 1066  
                                         i2u241_41 11F2                                           i2u233_41 116A  
                                         i2u225_41 10E2                                           i2u217_41 1062  
                                         i2u250_40 128E                                           i2u242_40 1206  
                                         i2u234_40 117E                                           i2u226_40 10F6  
                                         i2u218_40 1074                                           i2u250_41 128A  
                                         i2u242_41 1202                                           i2u234_41 117A  
                                         i2u226_41 10F2                                           i2u218_41 1070  
                                         i2u251_40 12A6                                           i2u243_40 121E  
                                         i2u235_40 1196                                           i2u227_40 110E  
                                         i2u219_40 1086                                           i2u251_41 12A2  
                                         i2u243_41 121A                                           i2u235_41 1192  
                                         i2u227_41 110A                                           i2u219_41 1082  
                                         i2u260_40 1334                                           i2u252_40 12B4  
                                         i2u244_40 122C                                           i2u236_40 11A4  
                                         i2u228_40 111C                                           i2u260_41 1330  
                                         i2u252_41 12B0                                           i2u244_41 1228  
                                         i2u236_41 11A0                                           i2u228_41 1118  
                                         i2u261_40 1346                                           i2u253_40 12C6  
                                         i2u245_40 123A                                           i2u237_40 11B2  
                                         i2u229_40 112A                                           i2u261_41 1342  
                                         i2u253_41 12C2                                           i2u245_41 1236  
                                         i2u237_41 11AE                                           i2u229_41 1126  
                                         i2u270_40 13D4                                           i2u262_40 1354  
                                         i2u254_40 12D4                                           i2u246_40 124A  
                                         i2u238_40 11C2                                           i2u270_41 13D0  
                                         i2u262_41 1350                                           i2u254_41 12D0  
                                         i2u246_41 1246                                           i2u238_41 11BE  
                                         i2u271_40 13E6                                           i2u263_40 1366  
                                         i2u255_40 12E6                                           i2u247_40 1262  
                                         i2u239_40 11DA                                           i2u271_41 13E2  
                                         i2u263_41 1362                                           i2u255_41 12E2  
                                         i2u247_41 125E                                           i2u239_41 11D6  
                                         i2u272_40 13F4                                           i2u264_40 1374  
                                         i2u256_40 12F4                                           i2u248_40 1270  
                                         i2u272_41 13F0                                           i2u264_41 1370  
                                         i2u256_41 12F0                                           i2u248_41 126C  
                                         i2u273_40 1406                                           i2u265_40 1386  
                                         i2u257_40 1306                                           i2u249_40 127E  
                                         i2u273_41 1402                                           i2u265_41 1382  
                                         i2u257_41 1302                                           i2u249_41 127A  
                                         _PIR1bits 0F9E                                           i2u274_40 1414  
                                         i2u266_40 1394                                           i2u258_40 1314  
                                         i2u274_41 1410                                           i2u266_41 1390  
                                         i2u258_41 1310                                           i2u267_40 13A6  
                                         i2u259_40 1326                                           i2u267_41 13A2  
                                         i2u259_41 1322                                           _PIR2bits 0FA1  
                                         i2u268_40 13B4                                           i2u268_41 13B0  
                                         i2u269_40 13C6                                           i2u269_41 13C2  
                                         _TMR0_ISR 1508                                           _TMR1_ISR 14FC  
                                         _TMR2_ISR 1514                                           _TMR3_ISR 14F0  
                                       _ADCON0bits 0FC2                                         _ADCON1bits 0FC1  
                                       _ADCON2bits 0FC0                            __end_of_MSSP_I2C_BC_ISR 152A  
                                      _INTCON2bits 0FF1                                        _INTCON3bits 0FF0  
                                        copy_data0 1430                                         _EECON1bits 0FA6  
                           ?_application_intialize 0070                                           __Hrparam 0000  
                                         __Lrparam 0000                                  RB6_ISR@RB6_Source 0070  
                            _CCP1_InterruptHandler 003B                        __end_of_ecu_layer_intialize 1548  
                               __end_of_btn_values 1011                              _TMR1_InterruptHandler 0017  
                                     _MSSP_I2C_ISR 1522                                           __ptext10 14B0  
                                         __ptext11 14CA                                           __ptext20 153A  
                                         __ptext12 1548                                           __ptext21 153E  
                                         __ptext13 1522                                           __ptext22 1542  
                                         __ptext14 1526                                           __ptext15 152A  
                                         __ptext16 152E                                           __ptext17 1532  
                                         __ptext18 1536                                           __ptext19 154A  
                                     _MSSP_SPI_ISR 1548                                           isa$xinst 0000  
                                         int$flags 0071                                   ?_MSSP_I2C_BC_ISR 0070  
                                       _INTCONbits 0FF2                                           intlevel2 0000  
                        _EUSART_TxInterruptHandler 000D                                     _port_registers 0047  
                                      _SSPCON1bits 0FC6                                        _SSPCON2bits 0FC5  
                            _CCP2_InterruptHandler 0039                              _TMR2_InterruptHandler 0013  
                                ?_InterruptManager 0070  
